; Listing generated by Microsoft (R) Optimizing Compiler Version 19.32.31329.0 

include listing.inc

INCLUDELIB OLDNAMES

PUBLIC	??_C@_02JDPG@rb@				; `string'
PUBLIC	??_C@_07MIABAGAF@Bedroom@			; `string'
PUBLIC	??_C@_0M@LENBOBFJ@?4?1floor?4bmp@		; `string'
PUBLIC	??_C@_0L@MFIJNKHO@?4?1wall?4bmp@		; `string'
PUBLIC	??_C@_09OFEHNHJM@?4?1van?4bmp@			; `string'
PUBLIC	?theta@@3NA					; theta
PUBLIC	?refX@@3NA					; refX
PUBLIC	?diff1@@3EA					; diff1
PUBLIC	?diff2@@3EA					; diff2
PUBLIC	?amb2@@3EA					; amb2
PUBLIC	?amb1@@3EA					; amb1
PUBLIC	?redFlag@@3EA					; redFlag
PUBLIC	?z@@3NA						; z
PUBLIC	?eyeY@@3NA					; eyeY
PUBLIC	?refY@@3NA					; refY
PUBLIC	?windowWidth@@3NA				; windowWidth
PUBLIC	?eyeZ@@3NA					; eyeZ
PUBLIC	?switchLamp@@3EA				; switchLamp
PUBLIC	?spec1@@3EA					; spec1
PUBLIC	?refZ@@3NA					; refZ
PUBLIC	?eyeX@@3NA					; eyeX
PUBLIC	?spec2@@3EA					; spec2
PUBLIC	?windowHeight@@3NA				; windowHeight
PUBLIC	?textureVec@@3PAIA				; textureVec
PUBLIC	?switchOne@@3EA					; switchOne
EXTRN	malloc:PROC
EXTRN	__imp_glutSwapBuffers:PROC
EXTRN	__imp_glLightf:PROC
EXTRN	__imp_glutInitWindowSize:PROC
EXTRN	fread:PROC
EXTRN	__imp_glShadeModel:PROC
EXTRN	__imp_glMaterialfv:PROC
EXTRN	__imp_glPushMatrix:PROC
EXTRN	__imp_glLightfv:PROC
EXTRN	__imp_glDisable:PROC
EXTRN	__imp_glutInitWindowPosition:PROC
EXTRN	__imp_gluPerspective:PROC
EXTRN	__imp_glutMainLoop:PROC
EXTRN	__imp_glScalef:PROC
EXTRN	__imp_glutDisplayFunc:PROC
EXTRN	__imp_glFlush:PROC
EXTRN	__imp_glRotatef:PROC
EXTRN	__imp_glTexImage2D:PROC
EXTRN	__imp_glTranslatef:PROC
EXTRN	__imp_glBegin:PROC
EXTRN	__imp_glutInitDisplayMode:PROC
EXTRN	__imp_glTexParameteri:PROC
EXTRN	__imp_glVertex3fv:PROC
EXTRN	__imp_glutIdleFunc:PROC
EXTRN	__imp_glLoadIdentity:PROC
EXTRN	__imp_glNormal3f:PROC
EXTRN	__imp_glColor3f:PROC
EXTRN	__imp_glTranslated:PROC
EXTRN	__imp_glMatrixMode:PROC
EXTRN	fseek:PROC
EXTRN	__imp_glutSolidSphere:PROC
EXTRN	__imp_glTexCoord2f:PROC
EXTRN	__imp_gluLookAt:PROC
EXTRN	__imp_glutKeyboardFunc:PROC
EXTRN	__imp_glutPostRedisplay:PROC
EXTRN	__imp_glEnd:PROC
EXTRN	fclose:PROC
EXTRN	__imp_glVertex3f:PROC
EXTRN	__imp_glEnable:PROC
EXTRN	fopen:PROC
EXTRN	__imp_glGenTextures:PROC
EXTRN	__imp_glBindTexture:PROC
EXTRN	__imp___glutInitWithExit:PROC
EXTRN	__imp___glutCreateWindowWithExit:PROC
EXTRN	__imp_glutReshapeFunc:PROC
EXTRN	__imp_glClear:PROC
EXTRN	__imp_glViewport:PROC
EXTRN	__imp_glPopMatrix:PROC
EXTRN	exit:PROC
EXTRN	__security_check_cookie:PROC
?refX@@3NA DQ	01H DUP (?)				; refX
?refY@@3NA DQ	01H DUP (?)				; refY
?switchLamp@@3EA DB 01H DUP (?)				; switchLamp
	ALIGN	8

?refZ@@3NA DQ	01H DUP (?)				; refZ
?textureVec@@3PAIA DD 05H DUP (?)			; textureVec
?switchOne@@3EA DB 01H DUP (?)				; switchOne
_BSS	ENDS
?theta@@3NA DQ	04066800000000000r		; 180	; theta
?diff1@@3EA DB	01H					; diff1
?diff2@@3EA DB	01H					; diff2
?amb2@@3EA DB	01H					; amb2
?amb1@@3EA DB	01H					; amb1
?redFlag@@3EA DB 01H					; redFlag
?spec1@@3EA DB	01H					; spec1
?spec2@@3EA DB	01H					; spec2
	ORG $+1
?z@@3NA	DQ	0401fea5f84cad57cr		; 7.97888 ; z
?eyeY@@3NA DQ	04000000000000000r		; 2	; eyeY
?eyeZ@@3NA DQ	0402e000000000000r		; 15	; eyeZ
?eyeX@@3NA DQ	0401c000000000000r		; 7	; eyeX
?TquadIndices@@3PAY03EA DB 00H				; TquadIndices
	DB	01H
	DB	02H
	DB	03H
	DB	04H
	DB	05H
	DB	06H
	DB	07H
	DB	05H
	DB	01H
	DB	02H
	DB	06H
	DB	00H
	DB	04H
	DB	07H
	DB	03H
	DB	02H
	DB	03H
	DB	07H
	DB	06H
	DB	01H
	DB	05H
	DB	04H
	DB	00H
?windowWidth@@3NA DQ 04082c00000000000r		; 600	; windowWidth
?_Fake_alloc@std@@3U_Fake_allocator@1@B	ORG $+1		; std::_Fake_alloc
	ORG $+7
?quadIndices@@3PAY03EA DB 00H				; quadIndices
	DB	01H
	DB	02H
	DB	03H
	DB	04H
	DB	05H
	DB	06H
	DB	07H
	DB	05H
	DB	01H
	DB	02H
	DB	06H
	DB	00H
	DB	04H
	DB	07H
	DB	03H
	DB	02H
	DB	03H
	DB	07H
	DB	06H
	DB	01H
	DB	05H
	DB	04H
	DB	00H
?windowHeight@@3NA DQ 04089000000000000r	; 800	; windowHeight
CONST	ENDS
;	COMDAT ??_C@_09OFEHNHJM@?4?1van?4bmp@
CONST	SEGMENT
??_C@_09OFEHNHJM@?4?1van?4bmp@ DB './van.bmp', 00H	; `string'
CONST	ENDS
;	COMDAT ??_C@_0L@MFIJNKHO@?4?1wall?4bmp@
CONST	SEGMENT
??_C@_0L@MFIJNKHO@?4?1wall?4bmp@ DB './wall.bmp', 00H	; `string'
CONST	ENDS
;	COMDAT ??_C@_0M@LENBOBFJ@?4?1floor?4bmp@
CONST	SEGMENT
??_C@_0M@LENBOBFJ@?4?1floor?4bmp@ DB './floor.bmp', 00H	; `string'
CONST	ENDS
;	COMDAT ??_C@_07MIABAGAF@Bedroom@
CONST	SEGMENT
??_C@_07MIABAGAF@Bedroom@ DB 'Bedroom', 00H		; `string'
CONST	ENDS
;	COMDAT ??_C@_02JDPG@rb@
CONST	SEGMENT
??_C@_02JDPG@rb@ DB 'rb', 00H				; `string'
CONST	ENDS
PUBLIC	main
PUBLIC	?fullScreen@@YAXHH@Z				; fullScreen
PUBLIC	?animate@@YAXXZ					; animate
PUBLIC	?myKeyboardFunc@@YAXEHH@Z			; myKeyboardFunc
PUBLIC	?display@@YAXXZ					; display
PUBLIC	?cupboard@@YAXXZ				; cupboard
PUBLIC	?lampLight@@YAXXZ				; lampLight
PUBLIC	?lightOne@@YAXXZ				; lightOne
PUBLIC	?lightBulb1@@YAXXZ				; lightBulb1
PUBLIC	?wardrobe@@YAXXZ				; wardrobe
PUBLIC	?Pic@@YAXXZ					; Pic
PUBLIC	?lamp@@YAXXZ					; lamp
PUBLIC	?bedsideDrawer@@YAXXZ				; bedsideDrawer
PUBLIC	?bed@@YAXXZ					; bed
PUBLIC	?room@@YAXXZ					; room
PUBLIC	?drawSphere@@YAXMMMMMMM@Z			; drawSphere
PUBLIC	?drawTrapezoid@@YAXMMMMMMM@Z			; drawTrapezoid
PUBLIC	?drawCube1@@YAXMMMMMMM@Z			; drawCube1
PUBLIC	?loadGLTexture@@YAIPEBD@Z			; loadGLTexture
PUBLIC	__real@38d1b717
PUBLIC	__real@3c23d70a
PUBLIC	__real@3ca3d70a
PUBLIC	__real@3cf5c28f
PUBLIC	__real@3d4ccccd
PUBLIC	__real@3d8f5c29
PUBLIC	__real@3da3d70a
PUBLIC	__real@3db851ec
PUBLIC	__real@3dcccccd
PUBLIC	__real@3de147ae
PUBLIC	__real@3df5c28f
PUBLIC	__real@3e19999a
PUBLIC	__real@3e23d70a
PUBLIC	__real@3e3851ec
PUBLIC	__real@3e4ccccd
PUBLIC	__real@3e6b851f
PUBLIC	__real@3e800000
PUBLIC	__real@3e99999a
PUBLIC	__real@3ea3d70a
PUBLIC	__real@3eb33333
PUBLIC	__real@3eb851ec
PUBLIC	__real@3ebd70a4
PUBLIC	__real@3ecccccd
PUBLIC	__real@3f000000
PUBLIC	__real@3f0b851f
PUBLIC	__real@3f19999a
PUBLIC	__real@3f2b851f
PUBLIC	__real@3f333333
PUBLIC	__real@3f4ccccd
PUBLIC	__real@3f6147ae
PUBLIC	__real@3f666666
PUBLIC	__real@3f800000
PUBLIC	__real@3f8ccccd
PUBLIC	__real@3f947ae147ae147b
PUBLIC	__real@3fb33333
PUBLIC	__real@3fb999999999999a
PUBLIC	__real@3fc00000
PUBLIC	__real@3ff0000000000000
PUBLIC	__real@4000000000000000
PUBLIC	__real@4008000000000000
PUBLIC	__real@401c000000000000
PUBLIC	__real@402e000000000000
PUBLIC	__real@40400000
PUBLIC	__real@404ccccd
PUBLIC	__real@404e000000000000
PUBLIC	__real@4059000000000000
PUBLIC	__real@4062c00000000000
PUBLIC	__real@406a400000000000
PUBLIC	__real@407f400000000000
PUBLIC	__real@40800000
PUBLIC	__real@408147ae
PUBLIC	__real@4081999a
PUBLIC	__real@4089999a
PUBLIC	__real@408ccccd
PUBLIC	__real@40900000
PUBLIC	__real@40980000
PUBLIC	__real@40a00000
PUBLIC	__real@40b00000
PUBLIC	__real@40bccccd
PUBLIC	__real@40c00000
PUBLIC	__real@40c66666
PUBLIC	__real@40e00000
PUBLIC	__real@41000000
PUBLIC	__real@410b3333
PUBLIC	__real@410ccccd
PUBLIC	__real@410e6666
PUBLIC	__real@410f3333
PUBLIC	__real@4110cccd
PUBLIC	__real@41500000
PUBLIC	__real@41700000
PUBLIC	__real@41a00000
PUBLIC	__real@42000000
PUBLIC	__real@420c0000
PUBLIC	__real@42480000
PUBLIC	__real@42b40000
PUBLIC	__real@42c80000
PUBLIC	__real@bdcccccd
PUBLIC	__real@bf000000
PUBLIC	__real@bf4ccccd
PUBLIC	__real@bf7d70a4
PUBLIC	__real@bf800000
PUBLIC	__real@bf947ae147ae147b
PUBLIC	__real@bfe0000000000000
PUBLIC	__real@bff0000000000000
PUBLIC	__real@c0000000
PUBLIC	__real@c000000000000000
PUBLIC	__xmm@000000003f8000003f8000003f800000
PUBLIC	__xmm@3f800000000000000000000000000000
PUBLIC	__xmm@3f800000000000003d4ccccd3d4ccccd
PUBLIC	__xmm@3f800000000000003dcccccd3e4ccccd
PUBLIC	__xmm@3f800000000000003f57ced93f800000
PUBLIC	__xmm@3f8000003dcccccd3dcccccd3dcccccd
PUBLIC	__xmm@3f8000003f0000003f0000003f000000
PUBLIC	__xmm@3f8000003f8000003f8000003f800000
PUBLIC	__xmm@3f8000004100000040a0000040a00000
PUBLIC	__xmm@3f800000411000003fc000003f333333
EXTRN	__GSHandlerCheck:PROC
EXTRN	__ImageBase:BYTE
EXTRN	__security_cookie:QWORD
EXTRN	_fltused:DWORD
;	COMDAT ?pixeldata@?1??loadGLTexture@@YAIPEBD@Z@4PEAEEA
_BSS	SEGMENT
?pixeldata@?1??loadGLTexture@@YAIPEBD@Z@4PEAEEA DQ 01H DUP (?) ; `loadGLTexture'::`2'::pixeldata
_BSS	ENDS
;	COMDAT ?imageheight@?1??loadGLTexture@@YAIPEBD@Z@4HA
_BSS	SEGMENT
?imageheight@?1??loadGLTexture@@YAIPEBD@Z@4HA DD 01H DUP (?) ; `loadGLTexture'::`2'::imageheight
_BSS	ENDS
;	COMDAT ?imagewidth@?1??loadGLTexture@@YAIPEBD@Z@4HA
_BSS	SEGMENT
?imagewidth@?1??loadGLTexture@@YAIPEBD@Z@4HA DD 01H DUP (?) ; `loadGLTexture'::`2'::imagewidth
_BSS	ENDS
;	COMDAT ?pixellength@?1??loadGLTexture@@YAIPEBD@Z@4HA
_BSS	SEGMENT
?pixellength@?1??loadGLTexture@@YAIPEBD@Z@4HA DD 01H DUP (?) ; `loadGLTexture'::`2'::pixellength
_BSS	ENDS
;	COMDAT pdata
pdata	SEGMENT
$pdata$main DD	imagerel $LN8
	DD	imagerel $LN8+266
	DD	imagerel $unwind$main
pdata	ENDS
;	COMDAT pdata
pdata	SEGMENT
$pdata$?fullScreen@@YAXHH@Z DD imagerel $LN5
	DD	imagerel $LN5+128
	DD	imagerel $unwind$?fullScreen@@YAXHH@Z
pdata	ENDS
;	COMDAT pdata
pdata	SEGMENT
$pdata$?myKeyboardFunc@@YAXEHH@Z DD imagerel $LN28
	DD	imagerel $LN28+797
	DD	imagerel $unwind$?myKeyboardFunc@@YAXEHH@Z
pdata	ENDS
;	COMDAT pdata
pdata	SEGMENT
$pdata$?display@@YAXXZ DD imagerel $LN97
	DD	imagerel $LN97+2697
	DD	imagerel $unwind$?display@@YAXXZ
pdata	ENDS
;	COMDAT pdata
pdata	SEGMENT
$pdata$?cupboard@@YAXXZ DD imagerel $LN4
	DD	imagerel $LN4+1156
	DD	imagerel $unwind$?cupboard@@YAXXZ
pdata	ENDS
;	COMDAT pdata
pdata	SEGMENT
$pdata$?lampLight@@YAXXZ DD imagerel $LN29
	DD	imagerel $LN29+330
	DD	imagerel $unwind$?lampLight@@YAXXZ
pdata	ENDS
;	COMDAT pdata
pdata	SEGMENT
$pdata$?lightOne@@YAXXZ DD imagerel $LN29
	DD	imagerel $LN29+237
	DD	imagerel $unwind$?lightOne@@YAXXZ
pdata	ENDS
;	COMDAT pdata
pdata	SEGMENT
$pdata$?lightBulb1@@YAXXZ DD imagerel $LN7
	DD	imagerel $LN7+285
	DD	imagerel $unwind$?lightBulb1@@YAXXZ
pdata	ENDS
;	COMDAT pdata
pdata	SEGMENT
$pdata$?wardrobe@@YAXXZ DD imagerel $LN4
	DD	imagerel $LN4+1157
	DD	imagerel $unwind$?wardrobe@@YAXXZ
pdata	ENDS
;	COMDAT pdata
pdata	SEGMENT
$pdata$?Pic@@YAXXZ DD imagerel $LN20
	DD	imagerel $LN20+485
	DD	imagerel $unwind$?Pic@@YAXXZ
pdata	ENDS
;	COMDAT pdata
pdata	SEGMENT
$pdata$?lamp@@YAXXZ DD imagerel $LN4
	DD	imagerel $LN4+434
	DD	imagerel $unwind$?lamp@@YAXXZ
pdata	ENDS
;	COMDAT pdata
pdata	SEGMENT
$pdata$?bedsideDrawer@@YAXXZ DD imagerel $LN14
	DD	imagerel $LN14+547
	DD	imagerel $unwind$?bedsideDrawer@@YAXXZ
pdata	ENDS
;	COMDAT pdata
pdata	SEGMENT
$pdata$?bed@@YAXXZ DD imagerel $LN4
	DD	imagerel $LN4+467
	DD	imagerel $unwind$?bed@@YAXXZ
pdata	ENDS
;	COMDAT pdata
pdata	SEGMENT
$pdata$?room@@YAXXZ DD imagerel $LN4
	DD	imagerel $LN4+1214
	DD	imagerel $unwind$?room@@YAXXZ
pdata	ENDS
;	COMDAT pdata
pdata	SEGMENT
$pdata$?drawSphere@@YAXMMMMMMM@Z DD imagerel $LN12
	DD	imagerel $LN12+244
	DD	imagerel $unwind$?drawSphere@@YAXMMMMMMM@Z
pdata	ENDS
;	COMDAT pdata
pdata	SEGMENT
$pdata$?drawTrapezoid@@YAXMMMMMMM@Z DD imagerel $LN25
	DD	imagerel $LN25+626
	DD	imagerel $unwind$?drawTrapezoid@@YAXMMMMMMM@Z
pdata	ENDS
;	COMDAT pdata
pdata	SEGMENT
$pdata$?drawCube1@@YAXMMMMMMM@Z DD imagerel $LN22
	DD	imagerel $LN22+584
	DD	imagerel $unwind$?drawCube1@@YAXMMMMMMM@Z
pdata	ENDS
;	COMDAT pdata
pdata	SEGMENT
$pdata$?getNormal3p@@YAXMMMMMMMMM@Z DD imagerel ?getNormal3p@@YAXMMMMMMMMM@Z
	DD	imagerel ?getNormal3p@@YAXMMMMMMMMM@Z+192
	DD	imagerel $unwind$?getNormal3p@@YAXMMMMMMMMM@Z
pdata	ENDS
;	COMDAT pdata
pdata	SEGMENT
$pdata$?loadGLTexture@@YAIPEBD@Z DD imagerel $LN17
	DD	imagerel $LN17+476
	DD	imagerel $unwind$?loadGLTexture@@YAIPEBD@Z
pdata	ENDS
;	COMDAT __xmm@3f800000411000003fc000003f333333
CONST	SEGMENT
__xmm@3f800000411000003fc000003f333333 DB '333?', 00H, 00H, 0c0H, '?', 00H
	DB	00H, 010H, 'A', 00H, 00H, 080H, '?'
CONST	ENDS
;	COMDAT __xmm@3f8000004100000040a0000040a00000
CONST	SEGMENT
__xmm@3f8000004100000040a0000040a00000 DB 00H, 00H, 0a0H, '@', 00H, 00H, 0a0H
	DB	'@', 00H, 00H, 00H, 'A', 00H, 00H, 080H, '?'
CONST	ENDS
;	COMDAT __xmm@3f8000003f8000003f8000003f800000
CONST	SEGMENT
__xmm@3f8000003f8000003f8000003f800000 DB 00H, 00H, 080H, '?', 00H, 00H, 080H
	DB	'?', 00H, 00H, 080H, '?', 00H, 00H, 080H, '?'
CONST	ENDS
;	COMDAT __xmm@3f8000003f0000003f0000003f000000
CONST	SEGMENT
__xmm@3f8000003f0000003f0000003f000000 DB 00H, 00H, 00H, '?', 00H, 00H, 00H
	DB	'?', 00H, 00H, 00H, '?', 00H, 00H, 080H, '?'
CONST	ENDS
;	COMDAT __xmm@3f8000003dcccccd3dcccccd3dcccccd
CONST	SEGMENT
__xmm@3f8000003dcccccd3dcccccd3dcccccd DB 0cdH, 0ccH, 0ccH, '=', 0cdH, 0ccH
	DB	0ccH, '=', 0cdH, 0ccH, 0ccH, '=', 00H, 00H, 080H, '?'
CONST	ENDS
;	COMDAT __xmm@3f800000000000003f57ced93f800000
CONST	SEGMENT
__xmm@3f800000000000003f57ced93f800000 DB 00H, 00H, 080H, '?', 0d9H, 0ceH
	DB	'W?', 00H, 00H, 00H, 00H, 00H, 00H, 080H, '?'
CONST	ENDS
;	COMDAT __xmm@3f800000000000003dcccccd3e4ccccd
CONST	SEGMENT
__xmm@3f800000000000003dcccccd3e4ccccd DB 0cdH, 0ccH, 'L>', 0cdH, 0ccH, 0ccH
	DB	'=', 00H, 00H, 00H, 00H, 00H, 00H, 080H, '?'
CONST	ENDS
;	COMDAT __xmm@3f800000000000003d4ccccd3d4ccccd
CONST	SEGMENT
__xmm@3f800000000000003d4ccccd3d4ccccd DB 0cdH, 0ccH, 'L=', 0cdH, 0ccH, 'L'
	DB	'=', 00H, 00H, 00H, 00H, 00H, 00H, 080H, '?'
CONST	ENDS
;	COMDAT __xmm@3f800000000000000000000000000000
CONST	SEGMENT
__xmm@3f800000000000000000000000000000 DB 00H, 00H, 00H, 00H, 00H, 00H, 00H
	DB	00H, 00H, 00H, 00H, 00H, 00H, 00H, 080H, '?'
CONST	ENDS
;	COMDAT __xmm@000000003f8000003f8000003f800000
CONST	SEGMENT
__xmm@000000003f8000003f8000003f800000 DB 00H, 00H, 080H, '?', 00H, 00H, 080H
	DB	'?', 00H, 00H, 080H, '?', 00H, 00H, 00H, 00H
CONST	ENDS
;	COMDAT __real@c000000000000000
CONST	SEGMENT
__real@c000000000000000 DQ 0c000000000000000r	; -2
CONST	ENDS
;	COMDAT __real@c0000000
CONST	SEGMENT
__real@c0000000 DD 0c0000000r			; -2
CONST	ENDS
;	COMDAT __real@bff0000000000000
CONST	SEGMENT
__real@bff0000000000000 DQ 0bff0000000000000r	; -1
CONST	ENDS
;	COMDAT __real@bfe0000000000000
CONST	SEGMENT
__real@bfe0000000000000 DQ 0bfe0000000000000r	; -0.5
CONST	ENDS
;	COMDAT __real@bf947ae147ae147b
CONST	SEGMENT
__real@bf947ae147ae147b DQ 0bf947ae147ae147br	; -0.02
CONST	ENDS
;	COMDAT __real@bf800000
CONST	SEGMENT
__real@bf800000 DD 0bf800000r			; -1
CONST	ENDS
;	COMDAT __real@bf7d70a4
CONST	SEGMENT
__real@bf7d70a4 DD 0bf7d70a4r			; -0.99
CONST	ENDS
;	COMDAT __real@bf4ccccd
CONST	SEGMENT
__real@bf4ccccd DD 0bf4ccccdr			; -0.8
CONST	ENDS
;	COMDAT __real@bf000000
CONST	SEGMENT
__real@bf000000 DD 0bf000000r			; -0.5
CONST	ENDS
;	COMDAT __real@bdcccccd
CONST	SEGMENT
__real@bdcccccd DD 0bdcccccdr			; -0.1
CONST	ENDS
;	COMDAT __real@42c80000
CONST	SEGMENT
__real@42c80000 DD 042c80000r			; 100
CONST	ENDS
;	COMDAT __real@42b40000
CONST	SEGMENT
__real@42b40000 DD 042b40000r			; 90
CONST	ENDS
;	COMDAT __real@42480000
CONST	SEGMENT
__real@42480000 DD 042480000r			; 50
CONST	ENDS
;	COMDAT __real@420c0000
CONST	SEGMENT
__real@420c0000 DD 0420c0000r			; 35
CONST	ENDS
;	COMDAT __real@42000000
CONST	SEGMENT
__real@42000000 DD 042000000r			; 32
CONST	ENDS
;	COMDAT __real@41a00000
CONST	SEGMENT
__real@41a00000 DD 041a00000r			; 20
CONST	ENDS
;	COMDAT __real@41700000
CONST	SEGMENT
__real@41700000 DD 041700000r			; 15
CONST	ENDS
;	COMDAT __real@41500000
CONST	SEGMENT
__real@41500000 DD 041500000r			; 13
CONST	ENDS
;	COMDAT __real@4110cccd
CONST	SEGMENT
__real@4110cccd DD 04110cccdr			; 9.05
CONST	ENDS
;	COMDAT __real@410f3333
CONST	SEGMENT
__real@410f3333 DD 0410f3333r			; 8.95
CONST	ENDS
;	COMDAT __real@410e6666
CONST	SEGMENT
__real@410e6666 DD 0410e6666r			; 8.9
CONST	ENDS
;	COMDAT __real@410ccccd
CONST	SEGMENT
__real@410ccccd DD 0410ccccdr			; 8.8
CONST	ENDS
;	COMDAT __real@410b3333
CONST	SEGMENT
__real@410b3333 DD 0410b3333r			; 8.7
CONST	ENDS
;	COMDAT __real@41000000
CONST	SEGMENT
__real@41000000 DD 041000000r			; 8
CONST	ENDS
;	COMDAT __real@40e00000
CONST	SEGMENT
__real@40e00000 DD 040e00000r			; 7
CONST	ENDS
;	COMDAT __real@40c66666
CONST	SEGMENT
__real@40c66666 DD 040c66666r			; 6.2
CONST	ENDS
;	COMDAT __real@40c00000
CONST	SEGMENT
__real@40c00000 DD 040c00000r			; 6
CONST	ENDS
;	COMDAT __real@40bccccd
CONST	SEGMENT
__real@40bccccd DD 040bccccdr			; 5.9
CONST	ENDS
;	COMDAT __real@40b00000
CONST	SEGMENT
__real@40b00000 DD 040b00000r			; 5.5
CONST	ENDS
;	COMDAT __real@40a00000
CONST	SEGMENT
__real@40a00000 DD 040a00000r			; 5
CONST	ENDS
;	COMDAT __real@40980000
CONST	SEGMENT
__real@40980000 DD 040980000r			; 4.75
CONST	ENDS
;	COMDAT __real@40900000
CONST	SEGMENT
__real@40900000 DD 040900000r			; 4.5
CONST	ENDS
;	COMDAT __real@408ccccd
CONST	SEGMENT
__real@408ccccd DD 0408ccccdr			; 4.4
CONST	ENDS
;	COMDAT __real@4089999a
CONST	SEGMENT
__real@4089999a DD 04089999ar			; 4.3
CONST	ENDS
;	COMDAT __real@4081999a
CONST	SEGMENT
__real@4081999a DD 04081999ar			; 4.05
CONST	ENDS
;	COMDAT __real@408147ae
CONST	SEGMENT
__real@408147ae DD 0408147aer			; 4.04
CONST	ENDS
;	COMDAT __real@40800000
CONST	SEGMENT
__real@40800000 DD 040800000r			; 4
CONST	ENDS
;	COMDAT __real@407f400000000000
CONST	SEGMENT
__real@407f400000000000 DQ 0407f400000000000r	; 500
CONST	ENDS
;	COMDAT __real@406a400000000000
CONST	SEGMENT
__real@406a400000000000 DQ 0406a400000000000r	; 210
CONST	ENDS
;	COMDAT __real@4062c00000000000
CONST	SEGMENT
__real@4062c00000000000 DQ 04062c00000000000r	; 150
CONST	ENDS
;	COMDAT __real@4059000000000000
CONST	SEGMENT
__real@4059000000000000 DQ 04059000000000000r	; 100
CONST	ENDS
;	COMDAT __real@404e000000000000
CONST	SEGMENT
__real@404e000000000000 DQ 0404e000000000000r	; 60
CONST	ENDS
;	COMDAT __real@404ccccd
CONST	SEGMENT
__real@404ccccd DD 0404ccccdr			; 3.2
CONST	ENDS
;	COMDAT __real@40400000
CONST	SEGMENT
__real@40400000 DD 040400000r			; 3
CONST	ENDS
;	COMDAT __real@402e000000000000
CONST	SEGMENT
__real@402e000000000000 DQ 0402e000000000000r	; 15
CONST	ENDS
;	COMDAT __real@401c000000000000
CONST	SEGMENT
__real@401c000000000000 DQ 0401c000000000000r	; 7
CONST	ENDS
;	COMDAT __real@4008000000000000
CONST	SEGMENT
__real@4008000000000000 DQ 04008000000000000r	; 3
CONST	ENDS
;	COMDAT __real@4000000000000000
CONST	SEGMENT
__real@4000000000000000 DQ 04000000000000000r	; 2
CONST	ENDS
;	COMDAT __real@3ff0000000000000
CONST	SEGMENT
__real@3ff0000000000000 DQ 03ff0000000000000r	; 1
CONST	ENDS
;	COMDAT __real@3fc00000
CONST	SEGMENT
__real@3fc00000 DD 03fc00000r			; 1.5
CONST	ENDS
;	COMDAT __real@3fb999999999999a
CONST	SEGMENT
__real@3fb999999999999a DQ 03fb999999999999ar	; 0.1
CONST	ENDS
;	COMDAT __real@3fb33333
CONST	SEGMENT
__real@3fb33333 DD 03fb33333r			; 1.4
CONST	ENDS
;	COMDAT __real@3f947ae147ae147b
CONST	SEGMENT
__real@3f947ae147ae147b DQ 03f947ae147ae147br	; 0.02
CONST	ENDS
;	COMDAT __real@3f8ccccd
CONST	SEGMENT
__real@3f8ccccd DD 03f8ccccdr			; 1.1
CONST	ENDS
;	COMDAT __real@3f800000
CONST	SEGMENT
__real@3f800000 DD 03f800000r			; 1
CONST	ENDS
;	COMDAT __real@3f666666
CONST	SEGMENT
__real@3f666666 DD 03f666666r			; 0.9
CONST	ENDS
;	COMDAT __real@3f6147ae
CONST	SEGMENT
__real@3f6147ae DD 03f6147aer			; 0.88
CONST	ENDS
;	COMDAT __real@3f4ccccd
CONST	SEGMENT
__real@3f4ccccd DD 03f4ccccdr			; 0.8
CONST	ENDS
;	COMDAT __real@3f333333
CONST	SEGMENT
__real@3f333333 DD 03f333333r			; 0.7
CONST	ENDS
;	COMDAT __real@3f2b851f
CONST	SEGMENT
__real@3f2b851f DD 03f2b851fr			; 0.67
CONST	ENDS
;	COMDAT __real@3f19999a
CONST	SEGMENT
__real@3f19999a DD 03f19999ar			; 0.6
CONST	ENDS
;	COMDAT __real@3f0b851f
CONST	SEGMENT
__real@3f0b851f DD 03f0b851fr			; 0.545
CONST	ENDS
;	COMDAT __real@3f000000
CONST	SEGMENT
__real@3f000000 DD 03f000000r			; 0.5
CONST	ENDS
;	COMDAT __real@3ecccccd
CONST	SEGMENT
__real@3ecccccd DD 03ecccccdr			; 0.4
CONST	ENDS
;	COMDAT __real@3ebd70a4
CONST	SEGMENT
__real@3ebd70a4 DD 03ebd70a4r			; 0.37
CONST	ENDS
;	COMDAT __real@3eb851ec
CONST	SEGMENT
__real@3eb851ec DD 03eb851ecr			; 0.36
CONST	ENDS
;	COMDAT __real@3eb33333
CONST	SEGMENT
__real@3eb33333 DD 03eb33333r			; 0.35
CONST	ENDS
;	COMDAT __real@3ea3d70a
CONST	SEGMENT
__real@3ea3d70a DD 03ea3d70ar			; 0.32
CONST	ENDS
;	COMDAT __real@3e99999a
CONST	SEGMENT
__real@3e99999a DD 03e99999ar			; 0.3
CONST	ENDS
;	COMDAT __real@3e800000
CONST	SEGMENT
__real@3e800000 DD 03e800000r			; 0.25
CONST	ENDS
;	COMDAT __real@3e6b851f
CONST	SEGMENT
__real@3e6b851f DD 03e6b851fr			; 0.23
CONST	ENDS
;	COMDAT __real@3e4ccccd
CONST	SEGMENT
__real@3e4ccccd DD 03e4ccccdr			; 0.2
CONST	ENDS
;	COMDAT __real@3e3851ec
CONST	SEGMENT
__real@3e3851ec DD 03e3851ecr			; 0.18
CONST	ENDS
;	COMDAT __real@3e23d70a
CONST	SEGMENT
__real@3e23d70a DD 03e23d70ar			; 0.16
CONST	ENDS
;	COMDAT __real@3e19999a
CONST	SEGMENT
__real@3e19999a DD 03e19999ar			; 0.15
CONST	ENDS
;	COMDAT __real@3df5c28f
CONST	SEGMENT
__real@3df5c28f DD 03df5c28fr			; 0.12
CONST	ENDS
;	COMDAT __real@3de147ae
CONST	SEGMENT
__real@3de147ae DD 03de147aer			; 0.11
CONST	ENDS
;	COMDAT __real@3dcccccd
CONST	SEGMENT
__real@3dcccccd DD 03dcccccdr			; 0.1
CONST	ENDS
;	COMDAT __real@3db851ec
CONST	SEGMENT
__real@3db851ec DD 03db851ecr			; 0.09
CONST	ENDS
;	COMDAT __real@3da3d70a
CONST	SEGMENT
__real@3da3d70a DD 03da3d70ar			; 0.08
CONST	ENDS
;	COMDAT __real@3d8f5c29
CONST	SEGMENT
__real@3d8f5c29 DD 03d8f5c29r			; 0.07
CONST	ENDS
;	COMDAT __real@3d4ccccd
CONST	SEGMENT
__real@3d4ccccd DD 03d4ccccdr			; 0.05
CONST	ENDS
;	COMDAT __real@3cf5c28f
CONST	SEGMENT
__real@3cf5c28f DD 03cf5c28fr			; 0.03
CONST	ENDS
;	COMDAT __real@3ca3d70a
CONST	SEGMENT
__real@3ca3d70a DD 03ca3d70ar			; 0.02
CONST	ENDS
;	COMDAT __real@3c23d70a
CONST	SEGMENT
__real@3c23d70a DD 03c23d70ar			; 0.01
CONST	ENDS
;	COMDAT __real@38d1b717
CONST	SEGMENT
__real@38d1b717 DD 038d1b717r			; 0.0001
?v_cube@@3PAY02MA DD 000000000r			; 0	; v_cube
	DD	000000000r			; 0
	DD	000000000r			; 0
	DD	000000000r			; 0
	DD	000000000r			; 0
	DD	040400000r			; 3
	DD	040400000r			; 3
	DD	000000000r			; 0
	DD	040400000r			; 3
	DD	040400000r			; 3
	DD	000000000r			; 0
	DD	000000000r			; 0
	DD	000000000r			; 0
	DD	040400000r			; 3
	DD	000000000r			; 0
	DD	000000000r			; 0
	DD	040400000r			; 3
	DD	040400000r			; 3
	DD	040400000r			; 3
	DD	040400000r			; 3
	DD	040400000r			; 3
	DD	040400000r			; 3
	DD	040400000r			; 3
	DD	000000000r			; 0
?v_trapezoid@@3PAY02MA DD 000000000r		; 0	; v_trapezoid
	DD	000000000r			; 0
	DD	000000000r			; 0
	DD	000000000r			; 0
	DD	000000000r			; 0
	DD	040400000r			; 3
	DD	040400000r			; 3
	DD	000000000r			; 0
	DD	040400000r			; 3
	DD	040400000r			; 3
	DD	000000000r			; 0
	DD	000000000r			; 0
	DD	03f000000r			; 0.5
	DD	040400000r			; 3
	DD	03f000000r			; 0.5
	DD	03f000000r			; 0.5
	DD	040400000r			; 3
	DD	040200000r			; 2.5
	DD	040200000r			; 2.5
	DD	040400000r			; 3
	DD	040200000r			; 2.5
	DD	040200000r			; 2.5
	DD	040400000r			; 3
	DD	03f000000r			; 0.5
_DATA	ENDS
;	COMDAT xdata
xdata	SEGMENT
$unwind$?loadGLTexture@@YAIPEBD@Z DD 021519H
	DD	03002b206H
	DD	imagerel __GSHandlerCheck
	DD	058H
xdata	ENDS
;	COMDAT xdata
xdata	SEGMENT
$unwind$?getNormal3p@@YAXMMMMMMMMM@Z DD 096001H
	DD	029860H
	DD	038844H
	DD	047835H
	DD	05681fH
	DD	0c204H
xdata	ENDS
;	COMDAT xdata
xdata	SEGMENT
$unwind$?drawCube1@@YAXMMMMMMM@Z DD 0b2919H
	DD	07881aH
	DD	087815H
	DD	096811H
	DD	014010dH
	DD	060057006H
	DD	03004H
	DD	imagerel __GSHandlerCheck
	DD	068H
xdata	ENDS
;	COMDAT xdata
xdata	SEGMENT
$unwind$?drawTrapezoid@@YAXMMMMMMM@Z DD 0b2919H
	DD	08881aH
	DD	097815H
	DD	0a6811H
	DD	016010dH
	DD	060057006H
	DD	03004H
	DD	imagerel __GSHandlerCheck
	DD	078H
xdata	ENDS
;	COMDAT xdata
xdata	SEGMENT
$unwind$?drawSphere@@YAXMMMMMMM@Z DD 011319H
	DD	0c204H
	DD	imagerel __GSHandlerCheck
	DD	058H
xdata	ENDS
;	COMDAT xdata
xdata	SEGMENT
$unwind$?room@@YAXXZ DD 0102b01H
	DD	02c82bH
	DD	03b826H
	DD	04a821H
	DD	05981cH
	DD	068817H
	DD	077812H
	DD	08680eH
	DD	013010aH
xdata	ENDS
;	COMDAT xdata
xdata	SEGMENT
$unwind$?bed@@YAXXZ DD 0c2201H
	DD	04c822H
	DD	05b81dH
	DD	06a818H
	DD	079813H
	DD	08680eH
	DD	013010aH
xdata	ENDS
;	COMDAT xdata
xdata	SEGMENT
$unwind$?bedsideDrawer@@YAXXZ DD 082619H
	DD	088817H
	DD	097812H
	DD	0a680eH
	DD	017010aH
	DD	imagerel __GSHandlerCheck
	DD	078H
xdata	ENDS
;	COMDAT xdata
xdata	SEGMENT
$unwind$?lamp@@YAXXZ DD 071501H
	DD	04a815H
	DD	05980fH
	DD	067809H
	DD	0e204H
xdata	ENDS
;	COMDAT xdata
xdata	SEGMENT
$unwind$?Pic@@YAXXZ DD 062219H
	DD	06a813H
	DD	07880dH
	DD	0110107H
	DD	imagerel __GSHandlerCheck
	DD	058H
xdata	ENDS
;	COMDAT xdata
xdata	SEGMENT
$unwind$?wardrobe@@YAXXZ DD 0163d01H
	DD	04f83dH
	DD	05e837H
	DD	06d831H
	DD	07c82bH
	DD	08b826H
	DD	09a821H
	DD	0a981cH
	DD	0b8817H
	DD	0c7812H
	DD	0d680eH
	DD	01d010aH
xdata	ENDS
;	COMDAT xdata
xdata	SEGMENT
$unwind$?lightBulb1@@YAXXZ DD 011319H
	DD	0c204H
	DD	imagerel __GSHandlerCheck
	DD	058H
xdata	ENDS
;	COMDAT xdata
xdata	SEGMENT
$unwind$?lightOne@@YAXXZ DD 021619H
	DD	0110107H
	DD	imagerel __GSHandlerCheck
	DD	070H
xdata	ENDS
;	COMDAT xdata
xdata	SEGMENT
$unwind$?lampLight@@YAXXZ DD 021919H
	DD	0130107H
	DD	imagerel __GSHandlerCheck
	DD	080H
xdata	ENDS
;	COMDAT xdata
xdata	SEGMENT
$unwind$?cupboard@@YAXXZ DD 0163d01H
	DD	04f83dH
	DD	05e837H
	DD	06d831H
	DD	07c82bH
	DD	08b826H
	DD	09a821H
	DD	0a981cH
	DD	0b8817H
	DD	0c7812H
	DD	0d680eH
	DD	01d010aH
xdata	ENDS
;	COMDAT xdata
xdata	SEGMENT
$unwind$?display@@YAXXZ DD 0175619H
	DD	0cf848H
	DD	0de840H
	DD	0ed838H
	DD	0fc830H
	DD	010b82bH
	DD	011a826H
	DD	0129821H
	DD	013881cH
	DD	0147817H
	DD	0156813H
	DD	02c010fH
	DD	05004H
	DD	imagerel __GSHandlerCheck
	DD	0b8H
xdata	ENDS
;	COMDAT xdata
xdata	SEGMENT
$unwind$?myKeyboardFunc@@YAXEHH@Z DD 010401H
	DD	04204H
xdata	ENDS
;	COMDAT xdata
xdata	SEGMENT
$unwind$?fullScreen@@YAXHH@Z DD 040a01H
	DD	06340aH
	DD	07006320aH
xdata	ENDS
;	COMDAT xdata
xdata	SEGMENT
$unwind$main DD	011319H
	DD	06204H
	DD	imagerel __GSHandlerCheck
	DD	028H
xdata	ENDS
; Function compile flags: /Ogtpy
; File E:\xxxDATA\¥Û»˝…œ\–Èƒ‚œ÷ µ\22120111 –‹œËœË OpenGL¥Û◊˜“µ\room\packages\nupengl.core.0.1.0.1\build\native\include\GL\freeglut_std.h
;	COMDAT glutInit_ATEXIT_HACK
_TEXT	SEGMENT
argcp$ = 8
argv$ = 16
glutInit_ATEXIT_HACK PROC				; COMDAT

; 614  : static void FGAPIENTRY FGUNUSED glutInit_ATEXIT_HACK(int *argcp, char **argv) { __glutInitWithExit(argcp, argv, exit); }

	lea	r8, OFFSET FLAT:exit
	rex_jmp	QWORD PTR __imp___glutInitWithExit
glutInit_ATEXIT_HACK ENDP
_TEXT	ENDS
; Function compile flags: /Ogtpy
; File E:\xxxDATA\¥Û»˝…œ\–Èƒ‚œ÷ µ\22120111 –‹œËœË OpenGL¥Û◊˜“µ\room\packages\nupengl.core.0.1.0.1\build\native\include\GL\freeglut_std.h
;	COMDAT glutCreateWindow_ATEXIT_HACK
_TEXT	SEGMENT
title$dead$ = 8
glutCreateWindow_ATEXIT_HACK PROC			; COMDAT

; 616  : static int FGAPIENTRY FGUNUSED glutCreateWindow_ATEXIT_HACK(const char *title) { return __glutCreateWindowWithExit(title, exit); }

	lea	rdx, OFFSET FLAT:exit
	lea	rcx, OFFSET FLAT:??_C@_07MIABAGAF@Bedroom@
	rex_jmp	QWORD PTR __imp___glutCreateWindowWithExit
glutCreateWindow_ATEXIT_HACK ENDP
_TEXT	ENDS
; Function compile flags: /Ogtpy
; File E:\xxxDATA\¥Û»˝…œ\–Èƒ‚œ÷ µ\22120111 –‹œËœË OpenGL¥Û◊˜“µ\room\room\room.cpp
;	COMDAT ?loadGLTexture@@YAIPEBD@Z
_TEXT	SEGMENT
texture$ = 80
__$ArrayPad$ = 88
filename$ = 112
?loadGLTexture@@YAIPEBD@Z PROC				; loadGLTexture, COMDAT

; 40   : {

$LN17:
	push	rbx
	sub	rsp, 96					; 00000060H
	mov	rax, QWORD PTR __security_cookie
	xor	rax, rsp
	mov	QWORD PTR __$ArrayPad$[rsp], rax

; 41   :     unsigned int texture;
; 42   : 
; 43   :     static GLint   imagewidth;
; 44   :     static GLint   imageheight;
; 45   :     static GLint   pixellength;
; 46   :     static GLubyte* pixeldata;
; 47   :     FILE* pfile = fopen(filename, "rb");

	lea	rdx, OFFSET FLAT:??_C@_02JDPG@rb@
	call	fopen
	mov	rbx, rax

; 48   :     if (pfile == 0) exit(0);

	test	rax, rax
	je	$LN11@loadGLText

; 49   :     fseek(pfile, 0x0012, SEEK_SET); // skip 16 bits from beginning for bmp files

	xor	r8d, r8d
	mov	rcx, rax
	lea	edx, QWORD PTR [r8+18]
	call	fseek

; 50   :     // get the width of image
; 51   :     fread(&imagewidth, sizeof(imagewidth), 1, pfile);

	mov	edx, 4
	lea	rcx, OFFSET FLAT:?imagewidth@?1??loadGLTexture@@YAIPEBD@Z@4HA
	mov	r9, rbx
	lea	r8d, QWORD PTR [rdx-3]
	call	fread

; 52   :     // get the height of image
; 53   :     fread(&imageheight, sizeof(imageheight), 1, pfile);

	mov	edx, 4
	lea	rcx, OFFSET FLAT:?imageheight@?1??loadGLTexture@@YAIPEBD@Z@4HA
	mov	r9, rbx
	lea	r8d, QWORD PTR [rdx-3]
	call	fread

; 54   :     // count the length of in the image by pixel
; 55   :     // pixel data consists of three colors red, green and blue (Windows implement BGR)
; 56   :     pixellength = imagewidth * 3;

	mov	eax, DWORD PTR ?imagewidth@?1??loadGLTexture@@YAIPEBD@Z@4HA
	lea	ecx, DWORD PTR [rax+rax*2]
	mov	eax, ecx
	and	eax, -2147483645			; ffffffff80000003H
	jge	SHORT $LN14@loadGLText
	dec	eax
	or	eax, -4
	inc	eax
$LN14@loadGLText:

; 57   :     // pixel data width should be an integral multiple of 4, which is required by the .bmp file
; 58   :     while (pixellength % 4 != 0)

	test	eax, eax
	je	SHORT $LN3@loadGLText
	npad	7
$LL2@loadGLText:

; 59   :         pixellength++;

	inc	ecx
	mov	eax, ecx
	and	eax, -2147483645			; ffffffff80000003H
	jge	SHORT $LN13@loadGLText
	dec	eax
	or	eax, -4
	inc	eax
$LN13@loadGLText:

; 57   :     // pixel data width should be an integral multiple of 4, which is required by the .bmp file
; 58   :     while (pixellength % 4 != 0)

	test	eax, eax
	jne	SHORT $LL2@loadGLText
$LN3@loadGLText:

; 60   :     // pixel data length = width * height
; 61   :     pixellength *= imageheight;

	imul	ecx, DWORD PTR ?imageheight@?1??loadGLTexture@@YAIPEBD@Z@4HA
	mov	DWORD PTR ?pixellength@?1??loadGLTexture@@YAIPEBD@Z@4HA, ecx
	movsxd	rcx, ecx

; 62   :     // malloc for the image by pixel
; 63   :     pixeldata = (GLubyte*)malloc(pixellength); // memory allocation

	call	malloc
	mov	QWORD PTR ?pixeldata@?1??loadGLTexture@@YAIPEBD@Z@4PEAEEA, rax

; 64   :     if (pixeldata == 0)

	test	rax, rax
	je	$LN11@loadGLText

; 66   :     // read the data of image as pixel
; 67   :     fseek(pfile, 54, SEEK_SET);

	xor	r8d, r8d
	mov	rcx, rbx
	lea	edx, QWORD PTR [r8+54]
	call	fseek

; 68   :     fread(pixeldata, pixellength, 1, pfile);

	movsxd	rdx, DWORD PTR ?pixellength@?1??loadGLTexture@@YAIPEBD@Z@4HA
	mov	r9, rbx
	mov	rcx, QWORD PTR ?pixeldata@?1??loadGLTexture@@YAIPEBD@Z@4PEAEEA
	mov	r8d, 1
	call	fread

; 69   :     // close file
; 70   :     fclose(pfile);

	mov	rcx, rbx
	call	fclose

; 71   : 
; 72   :     glGenTextures(1, &texture);

	lea	rdx, QWORD PTR texture$[rsp]
	mov	ecx, 1
	call	QWORD PTR __imp_glGenTextures

; 73   :     glBindTexture(GL_TEXTURE_2D, texture);

	mov	edx, DWORD PTR texture$[rsp]
	mov	ecx, 3553				; 00000de1H
	call	QWORD PTR __imp_glBindTexture

; 74   :     glTexParameteri(GL_TEXTURE_2D, GL_TEXTURE_WRAP_S, GL_REPEAT);

	mov	edx, 10242				; 00002802H
	mov	ecx, 3553				; 00000de1H
	mov	r8d, 10497				; 00002901H
	call	QWORD PTR __imp_glTexParameteri

; 75   :     glTexParameteri(GL_TEXTURE_2D, GL_TEXTURE_WRAP_T, GL_REPEAT);

	mov	edx, 10243				; 00002803H
	mov	ecx, 3553				; 00000de1H
	mov	r8d, 10497				; 00002901H
	call	QWORD PTR __imp_glTexParameteri

; 76   :     glTexParameteri(GL_TEXTURE_2D, GL_TEXTURE_MAG_FILTER, GL_LINEAR);

	mov	edx, 10240				; 00002800H
	mov	ecx, 3553				; 00000de1H
	mov	r8d, 9729				; 00002601H
	call	QWORD PTR __imp_glTexParameteri

; 77   :     glTexParameteri(GL_TEXTURE_2D, GL_TEXTURE_MIN_FILTER, GL_LINEAR);

	mov	edx, 10241				; 00002801H
	mov	ecx, 3553				; 00000de1H
	mov	r8d, 9729				; 00002601H
	call	QWORD PTR __imp_glTexParameteri

; 78   :     glTexImage2D(GL_TEXTURE_2D, 0, GL_RGB, imagewidth, imageheight, 0, GL_BGR_EXT, GL_UNSIGNED_BYTE, pixeldata);

	mov	rax, QWORD PTR ?pixeldata@?1??loadGLTexture@@YAIPEBD@Z@4PEAEEA
	xor	edx, edx
	mov	r9d, DWORD PTR ?imagewidth@?1??loadGLTexture@@YAIPEBD@Z@4HA
	mov	ecx, 3553				; 00000de1H
	mov	QWORD PTR [rsp+64], rax
	mov	r8d, 6407				; 00001907H
	mov	eax, DWORD PTR ?imageheight@?1??loadGLTexture@@YAIPEBD@Z@4HA
	mov	DWORD PTR [rsp+56], 5121		; 00001401H
	mov	DWORD PTR [rsp+48], 32992		; 000080e0H
	mov	DWORD PTR [rsp+40], 0
	mov	DWORD PTR [rsp+32], eax
	call	QWORD PTR __imp_glTexImage2D

; 79   : 
; 80   :     return texture;

	mov	eax, DWORD PTR texture$[rsp]

; 81   : }

	mov	rcx, QWORD PTR __$ArrayPad$[rsp]
	xor	rcx, rsp
	call	__security_check_cookie
	add	rsp, 96					; 00000060H
	pop	rbx
	ret	0
$LN11@loadGLText:

; 65   :         exit(0);

	xor	ecx, ecx
	call	exit
	int	3
$LN15@loadGLText:
?loadGLTexture@@YAIPEBD@Z ENDP				; loadGLTexture
_TEXT	ENDS
; Function compile flags: /Ogtpy
; File E:\xxxDATA\¥Û»˝…œ\–Èƒ‚œ÷ µ\22120111 –‹œËœË OpenGL¥Û◊˜“µ\room\room\room.cpp
;	COMDAT ?getNormal3p@@YAXMMMMMMMMM@Z
_TEXT	SEGMENT
x1$ = 112
y1$ = 120
z1$ = 128
x2$ = 136
y2$ = 144
z2$ = 152
x3$ = 160
y3$ = 168
z3$ = 176
?getNormal3p@@YAXMMMMMMMMM@Z PROC			; getNormal3p, COMDAT

; 112  : {

	sub	rsp, 104				; 00000068H

; 113  :     GLfloat Ux, Uy, Uz, Vx, Vy, Vz, Nx, Ny, Nz;
; 114  : 
; 115  :     Ux = x2 - x1;
; 116  :     Uy = y2 - y1;
; 117  :     Uz = z2 - z1;
; 118  : 
; 119  :     Vx = x3 - x1;
; 120  :     Vy = y3 - y1;
; 121  :     Vz = z3 - z1;

	movss	xmm5, DWORD PTR z3$[rsp]
	movss	xmm4, DWORD PTR y3$[rsp]
	subss	xmm5, xmm2
	movaps	XMMWORD PTR [rsp+80], xmm6
	subss	xmm4, xmm1
	movss	xmm6, DWORD PTR z2$[rsp]
	subss	xmm6, xmm2
	movaps	XMMWORD PTR [rsp+64], xmm7
	movss	xmm7, DWORD PTR y2$[rsp]
	movaps	XMMWORD PTR [rsp+48], xmm8
	subss	xmm7, xmm1
	movss	xmm8, DWORD PTR x3$[rsp]

; 122  : 
; 123  :     Nx = Uy * Vz - Uz * Vy;
; 124  :     Ny = Uz * Vx - Ux * Vz;
; 125  :     Nz = Ux * Vy - Uy * Vx;

	movaps	xmm2, xmm4
	subss	xmm8, xmm0
	movaps	XMMWORD PTR [rsp+32], xmm9
	movaps	xmm9, xmm3
	mulss	xmm4, xmm6
	subss	xmm9, xmm0
	movaps	xmm3, xmm5
	mulss	xmm5, xmm7
	movaps	xmm0, xmm8
	mulss	xmm8, xmm6
	mulss	xmm0, xmm7
	subss	xmm5, xmm4
	mulss	xmm3, xmm9
	mulss	xmm2, xmm9
	subss	xmm8, xmm3
	subss	xmm2, xmm0

; 126  : 
; 127  :     glNormal3f(Nx, Ny, Nz);

	movaps	xmm0, xmm5
	movaps	xmm1, xmm8

; 128  : }

	movaps	xmm6, XMMWORD PTR [rsp+80]
	movaps	xmm7, XMMWORD PTR [rsp+64]
	movaps	xmm8, XMMWORD PTR [rsp+48]
	movaps	xmm9, XMMWORD PTR [rsp+32]
	add	rsp, 104				; 00000068H

; 126  : 
; 127  :     glNormal3f(Nx, Ny, Nz);

	rex_jmp	QWORD PTR __imp_glNormal3f
?getNormal3p@@YAXMMMMMMMMM@Z ENDP			; getNormal3p
_TEXT	ENDS
; Function compile flags: /Ogtpy
; File E:\xxxDATA\¥Û»˝…œ\–Èƒ‚œ÷ µ\22120111 –‹œËœË OpenGL¥Û◊˜“µ\room\room\room.cpp
;	COMDAT ?drawCube1@@YAXMMMMMMM@Z
_TEXT	SEGMENT
mat_shininess$ = 32
mat_ambient$ = 40
mat_diffuse$ = 56
mat_specular$ = 72
no_mat$ = 88
__$ArrayPad$ = 104
difX$ = 192
difY$ = 200
difZ$ = 208
ambX$ = 216
ambY$ = 224
ambZ$ = 232
shine$ = 240
?drawCube1@@YAXMMMMMMM@Z PROC				; drawCube1, COMDAT

; 132  : {

$LN22:
	mov	rax, rsp
	push	rbx
	push	rsi
	push	rdi
	sub	rsp, 160				; 000000a0H
	movaps	XMMWORD PTR [rax-40], xmm6
	movaps	XMMWORD PTR [rax-56], xmm7
	movaps	XMMWORD PTR [rax-72], xmm8
	mov	rax, QWORD PTR __security_cookie
	xor	rax, rsp
	mov	QWORD PTR __$ArrayPad$[rsp], rax

; 133  :     GLfloat no_mat[] = { 0.0, 0.0, 0.0, 1.0 };  //Ôºà‰∏çÂèëÂÖâÔºâ

	movaps	xmm4, XMMWORD PTR __xmm@3f800000000000000000000000000000

; 134  :     GLfloat mat_ambient[] = { ambX, ambY, ambZ, 1.0 };
; 135  :     GLfloat mat_diffuse[] = { difX, difY, difZ, 1.0 };
; 136  :     GLfloat mat_specular[] = { 1.0, 1.0, 1.0, 1.0 };
; 137  :     GLfloat mat_shininess[] = { shine };
; 138  : 
; 139  :     //ËÆæÁΩÆÊùêÊñôÂ±ûÊÄß
; 140  :     glMaterialfv(GL_FRONT, GL_AMBIENT, mat_ambient);    // ÊùêË¥®ÁöÑÁéØÂ¢ÉÈ¢úËâ≤

	lea	r8, QWORD PTR mat_ambient$[rsp]
	movaps	xmm5, xmm0
	movss	DWORD PTR mat_ambient$[rsp], xmm3
	movss	xmm0, DWORD PTR ambZ$[rsp]
	movaps	xmm6, xmm1
	movss	xmm1, DWORD PTR ambY$[rsp]
	mov	edx, 4608				; 00001200H
	movss	DWORD PTR mat_ambient$[rsp+8], xmm0
	mov	ecx, 1028				; 00000404H
	movaps	xmm0, XMMWORD PTR __xmm@3f8000003f8000003f8000003f800000
	movups	XMMWORD PTR mat_specular$[rsp], xmm0
	mov	DWORD PTR mat_ambient$[rsp+12], 1065353216 ; 3f800000H
	movss	xmm0, DWORD PTR shine$[rsp]
	movss	DWORD PTR mat_shininess$[rsp], xmm0
	movss	DWORD PTR mat_ambient$[rsp+4], xmm1
	movss	DWORD PTR mat_diffuse$[rsp], xmm5
	movss	DWORD PTR mat_diffuse$[rsp+4], xmm6
	movss	DWORD PTR mat_diffuse$[rsp+8], xmm2
	movups	XMMWORD PTR no_mat$[rsp], xmm4
	mov	DWORD PTR mat_diffuse$[rsp+12], 1065353216 ; 3f800000H
	call	QWORD PTR __imp_glMaterialfv

; 141  :     glMaterialfv(GL_FRONT, GL_DIFFUSE, mat_diffuse);    // ÊùêË¥®ÁöÑÊï£Â∞ÑÈ¢úËâ≤

	lea	r8, QWORD PTR mat_diffuse$[rsp]
	mov	edx, 4609				; 00001201H
	mov	ecx, 1028				; 00000404H
	call	QWORD PTR __imp_glMaterialfv

; 142  :     glMaterialfv(GL_FRONT, GL_SPECULAR, mat_specular);      // ÊùêË¥®ÁöÑÈïúÈù¢ÂèçÂ∞ÑÈ¢úËâ≤

	lea	r8, QWORD PTR mat_specular$[rsp]
	mov	edx, 4610				; 00001202H
	mov	ecx, 1028				; 00000404H
	call	QWORD PTR __imp_glMaterialfv

; 143  :     glMaterialfv(GL_FRONT, GL_SHININESS, mat_shininess);    // ÈïúÈù¢ÂèçÂ∞ÑÊåáÊï∞

	lea	r8, QWORD PTR mat_shininess$[rsp]
	mov	edx, 5633				; 00001601H
	mov	ecx, 1028				; 00000404H
	call	QWORD PTR __imp_glMaterialfv

; 144  :     glMaterialfv(GL_FRONT, GL_EMISSION, no_mat);    // ÊùêË¥®ÁöÑÂèëÂ∞ÑÂÖâÈ¢úËâ≤Ôºà‰∏çÂèëÂÖâÔºâ

	lea	r8, QWORD PTR no_mat$[rsp]
	mov	edx, 5632				; 00001600H
	mov	ecx, 1028				; 00000404H
	call	QWORD PTR __imp_glMaterialfv

; 145  : 
; 146  :      // ÁªòÂà∂ÂÖ≠Èù¢‰Ωì
; 147  :     glBegin(GL_QUADS);  // ÁªòÂà∂Áî±Âõõ‰∏™È°∂ÁÇπÁªÑÊàêÁöÑ‰∏ÄÁªÑÂçïÁã¨ÁöÑÂõõËæπÂΩ¢

	mov	ecx, 7
	call	QWORD PTR __imp_glBegin
	lea	rbx, OFFSET FLAT:?quadIndices@@3PAY03EA+1
	mov	edi, 6
	lea	rsi, OFFSET FLAT:?v_cube@@3PAY02MA
$LL4@drawCube1:

; 148  : 
; 149  :     for (GLint i = 0; i < 6; i++) //  ÁîªÂÖ≠‰∏™Èù¢
; 150  :     {
; 151  :         getNormal3p(v_cube[quadIndices[i][0]][0], v_cube[quadIndices[i][0]][1], v_cube[quadIndices[i][0]][2],

	movzx	eax, BYTE PTR [rbx-1]
	lea	rcx, QWORD PTR [rax+rax*2]
	movzx	eax, BYTE PTR [rbx]
	movss	xmm3, DWORD PTR [rsi+rcx*4+8]
	movss	xmm2, DWORD PTR [rsi+rcx*4+4]
	movss	xmm0, DWORD PTR [rsi+rcx*4]
	lea	rcx, QWORD PTR [rax+rax*2]
	movzx	eax, BYTE PTR [rbx+1]

; 115  :     Ux = x2 - x1;

	movss	xmm8, DWORD PTR [rsi+rcx*4]

; 116  :     Uy = y2 - y1;

	movss	xmm7, DWORD PTR [rsi+rcx*4+4]
	subss	xmm8, xmm0

; 117  :     Uz = z2 - z1;

	movss	xmm6, DWORD PTR [rsi+rcx*4+8]
	subss	xmm7, xmm2
	subss	xmm6, xmm3

; 148  : 
; 149  :     for (GLint i = 0; i < 6; i++) //  ÁîªÂÖ≠‰∏™Èù¢
; 150  :     {
; 151  :         getNormal3p(v_cube[quadIndices[i][0]][0], v_cube[quadIndices[i][0]][1], v_cube[quadIndices[i][0]][2],

	lea	rcx, QWORD PTR [rax+rax*2]

; 121  :     Vz = z3 - z1;

	movss	xmm4, DWORD PTR [rsi+rcx*4+8]
	movss	xmm5, DWORD PTR [rsi+rcx*4+4]
	subss	xmm4, xmm3
	movss	xmm1, DWORD PTR [rsi+rcx*4]
	subss	xmm5, xmm2
	subss	xmm1, xmm0

; 122  : 
; 123  :     Nx = Uy * Vz - Uz * Vy;
; 124  :     Ny = Uz * Vx - Ux * Vz;

	movaps	xmm3, xmm4
	mulss	xmm4, xmm7

; 125  :     Nz = Ux * Vy - Uy * Vx;

	movaps	xmm2, xmm5
	mulss	xmm3, xmm8
	movaps	xmm0, xmm1
	mulss	xmm5, xmm6
	mulss	xmm0, xmm7
	mulss	xmm2, xmm8
	subss	xmm4, xmm5
	mulss	xmm1, xmm6
	subss	xmm2, xmm0

; 126  : 
; 127  :     glNormal3f(Nx, Ny, Nz);

	movaps	xmm0, xmm4
	subss	xmm1, xmm3
	call	QWORD PTR __imp_glNormal3f

; 152  :             v_cube[quadIndices[i][1]][0], v_cube[quadIndices[i][1]][1], v_cube[quadIndices[i][1]][2],
; 153  :             v_cube[quadIndices[i][2]][0], v_cube[quadIndices[i][2]][1], v_cube[quadIndices[i][2]][2]);
; 154  : 
; 155  :         // ÁîªÂõõ‰∏™ÁÇπ
; 156  :         glVertex3fv(&v_cube[quadIndices[i][0]][0]);

	movzx	eax, BYTE PTR [rbx-1]
	lea	rcx, QWORD PTR [rax+rax*2]
	lea	rcx, QWORD PTR [rsi+rcx*4]
	call	QWORD PTR __imp_glVertex3fv

; 157  :         glVertex3fv(&v_cube[quadIndices[i][1]][0]);

	movzx	eax, BYTE PTR [rbx]
	lea	rcx, QWORD PTR [rax+rax*2]
	lea	rcx, QWORD PTR [rsi+rcx*4]
	call	QWORD PTR __imp_glVertex3fv

; 158  :         glVertex3fv(&v_cube[quadIndices[i][2]][0]);

	movzx	eax, BYTE PTR [rbx+1]
	lea	rcx, QWORD PTR [rax+rax*2]
	lea	rcx, QWORD PTR [rsi+rcx*4]
	call	QWORD PTR __imp_glVertex3fv

; 159  :         glVertex3fv(&v_cube[quadIndices[i][3]][0]);

	movzx	eax, BYTE PTR [rbx+2]
	lea	rcx, QWORD PTR [rax+rax*2]
	lea	rcx, QWORD PTR [rsi+rcx*4]
	call	QWORD PTR __imp_glVertex3fv
	add	rbx, 4
	sub	rdi, 1
	jne	$LL4@drawCube1

; 160  :     }
; 161  :     glEnd();

	call	QWORD PTR __imp_glEnd

; 162  : }

	mov	rcx, QWORD PTR __$ArrayPad$[rsp]
	xor	rcx, rsp
	call	__security_check_cookie
	movaps	xmm6, XMMWORD PTR [rsp+144]
	movaps	xmm7, XMMWORD PTR [rsp+128]
	movaps	xmm8, XMMWORD PTR [rsp+112]
	add	rsp, 160				; 000000a0H
	pop	rdi
	pop	rsi
	pop	rbx
	ret	0
?drawCube1@@YAXMMMMMMM@Z ENDP				; drawCube1
_TEXT	ENDS
; Function compile flags: /Ogtpy
; File E:\xxxDATA\¥Û»˝…œ\–Èƒ‚œ÷ µ\22120111 –‹œËœË OpenGL¥Û◊˜“µ\room\room\room.cpp
;	COMDAT ?drawTrapezoid@@YAXMMMMMMM@Z
_TEXT	SEGMENT
mat_shininess$ = 32
mat_ambient$ = 40
mat_diffuse$ = 56
mat_emission$ = 72
mat_specular$ = 88
no_mat$ = 104
__$ArrayPad$ = 120
difX$ = 208
difY$ = 216
difZ$ = 224
ambX$ = 232
ambY$ = 240
ambZ$ = 248
shine$ = 256
?drawTrapezoid@@YAXMMMMMMM@Z PROC			; drawTrapezoid, COMDAT

; 189  : {

$LN25:
	mov	rax, rsp
	push	rbx
	push	rsi
	push	rdi
	sub	rsp, 176				; 000000b0H
	movaps	XMMWORD PTR [rax-40], xmm6
	movaps	XMMWORD PTR [rax-56], xmm7
	movaps	XMMWORD PTR [rax-72], xmm8
	mov	rax, QWORD PTR __security_cookie
	xor	rax, rsp
	mov	QWORD PTR __$ArrayPad$[rsp], rax

; 190  :     GLfloat no_mat[] = { 0.0, 0.0, 0.0, 1.0 };     //Ôºà‰∏çÂèëÂÖâÔºâ

	movaps	xmm4, XMMWORD PTR __xmm@3f800000000000000000000000000000

; 191  :     GLfloat mat_ambient[] = { ambX, ambY, ambZ, 1.0 };
; 192  :     GLfloat mat_diffuse[] = { difX, difY, difZ, 1.0 };
; 193  :     GLfloat mat_specular[] = { 1.0, 1.0, 1.0, 1.0 };
; 194  :     GLfloat mat_emission[] = { difX, difY, difZ, 0.0 };
; 195  :     GLfloat mat_shininess[] = { shine };
; 196  : 
; 197  :     //ËÆæÁΩÆÊùêÊñôÂ±ûÊÄß
; 198  :     glMaterialfv(GL_FRONT, GL_AMBIENT, mat_ambient);    // ÊùêË¥®ÁöÑÁéØÂ¢ÉÈ¢úËâ≤

	lea	r8, QWORD PTR mat_ambient$[rsp]
	movaps	xmm5, xmm0
	movss	DWORD PTR mat_ambient$[rsp], xmm3
	movss	xmm0, DWORD PTR ambZ$[rsp]
	movaps	xmm6, xmm1
	movss	xmm1, DWORD PTR ambY$[rsp]
	mov	edx, 4608				; 00001200H
	movss	DWORD PTR mat_ambient$[rsp+8], xmm0
	mov	ecx, 1028				; 00000404H
	movaps	xmm0, XMMWORD PTR __xmm@3f8000003f8000003f8000003f800000
	movups	XMMWORD PTR mat_specular$[rsp], xmm0
	mov	DWORD PTR mat_ambient$[rsp+12], 1065353216 ; 3f800000H
	movss	DWORD PTR mat_ambient$[rsp+4], xmm1
	xorps	xmm0, xmm0
	movss	xmm1, DWORD PTR shine$[rsp]
	movss	DWORD PTR mat_emission$[rsp+12], xmm0
	movss	DWORD PTR mat_diffuse$[rsp], xmm5
	movss	DWORD PTR mat_diffuse$[rsp+4], xmm6
	movss	DWORD PTR mat_diffuse$[rsp+8], xmm2
	movss	DWORD PTR mat_emission$[rsp], xmm5
	movss	DWORD PTR mat_emission$[rsp+4], xmm6
	movss	DWORD PTR mat_emission$[rsp+8], xmm2
	movss	DWORD PTR mat_shininess$[rsp], xmm1
	movups	XMMWORD PTR no_mat$[rsp], xmm4
	mov	DWORD PTR mat_diffuse$[rsp+12], 1065353216 ; 3f800000H
	call	QWORD PTR __imp_glMaterialfv

; 199  :     glMaterialfv(GL_FRONT, GL_DIFFUSE, mat_diffuse);    // ÊùêË¥®ÁöÑÊï£Â∞ÑÈ¢úËâ≤

	lea	r8, QWORD PTR mat_diffuse$[rsp]
	mov	edx, 4609				; 00001201H
	mov	ecx, 1028				; 00000404H
	call	QWORD PTR __imp_glMaterialfv

; 200  :     glMaterialfv(GL_FRONT, GL_SPECULAR, mat_specular);    // ÊùêË¥®ÁöÑÈïúÈù¢ÂèçÂ∞ÑÈ¢úËâ≤

	lea	r8, QWORD PTR mat_specular$[rsp]
	mov	edx, 4610				; 00001202H
	mov	ecx, 1028				; 00000404H
	call	QWORD PTR __imp_glMaterialfv

; 201  :     glMaterialfv(GL_FRONT, GL_SHININESS, mat_shininess);    // ÈïúÈù¢ÂèçÂ∞ÑÊåáÊï∞

	lea	r8, QWORD PTR mat_shininess$[rsp]
	mov	edx, 5633				; 00001601H
	mov	ecx, 1028				; 00000404H
	call	QWORD PTR __imp_glMaterialfv

; 202  : 
; 203  :     // Âà§Êñ≠ÊòØÂê¶‰∫ÆÁÅØ
; 204  :     if (switchLamp == true) {

	cmp	BYTE PTR ?switchLamp@@3EA, 1		; switchLamp

; 205  :         glMaterialfv(GL_FRONT, GL_EMISSION, mat_emission);  // ÊùêË¥®ÁöÑÂèëÂ∞ÑÂÖâÈ¢úËâ≤

	lea	r8, QWORD PTR mat_emission$[rsp]
	mov	edx, 5632				; 00001600H
	mov	ecx, 1028				; 00000404H
	je	SHORT $LN23@drawTrapez

; 206  :     }
; 207  :     else {
; 208  :         glMaterialfv(GL_FRONT, GL_EMISSION, no_mat);    // ÊùêË¥®ÁöÑÂèëÂ∞ÑÂÖâÈ¢úËâ≤Ôºà‰∏çÂèëÂÖâÔºâ

	lea	r8, QWORD PTR no_mat$[rsp]
$LN23@drawTrapez:

; 209  :     }
; 210  : 
; 211  : 
; 212  :     // ÁªòÂà∂ÂÖ≠Èù¢‰Ωì
; 213  :     glBegin(GL_QUADS);// ÁªòÂà∂Áî±Âõõ‰∏™È°∂ÁÇπÁªÑÊàêÁöÑ‰∏ÄÁªÑÂçïÁã¨ÁöÑÂõõËæπÂΩ¢

	call	QWORD PTR __imp_glMaterialfv
	mov	ecx, 7
	call	QWORD PTR __imp_glBegin
	lea	rbx, OFFSET FLAT:?TquadIndices@@3PAY03EA+1
	mov	edi, 6
	lea	rsi, OFFSET FLAT:?v_trapezoid@@3PAY02MA
	npad	4
$LL4@drawTrapez:

; 214  : 
; 215  :     for (GLint i = 0; i < 6; i++)
; 216  :     {
; 217  :         getNormal3p(v_trapezoid[TquadIndices[i][0]][0], v_trapezoid[TquadIndices[i][0]][1], v_trapezoid[TquadIndices[i][0]][2],

	movzx	eax, BYTE PTR [rbx-1]
	lea	rcx, QWORD PTR [rax+rax*2]
	movzx	eax, BYTE PTR [rbx]
	movss	xmm3, DWORD PTR [rsi+rcx*4+8]
	movss	xmm2, DWORD PTR [rsi+rcx*4+4]
	movss	xmm0, DWORD PTR [rsi+rcx*4]
	lea	rcx, QWORD PTR [rax+rax*2]
	movzx	eax, BYTE PTR [rbx+1]

; 115  :     Ux = x2 - x1;

	movss	xmm8, DWORD PTR [rsi+rcx*4]

; 116  :     Uy = y2 - y1;

	movss	xmm7, DWORD PTR [rsi+rcx*4+4]
	subss	xmm8, xmm0

; 117  :     Uz = z2 - z1;

	movss	xmm6, DWORD PTR [rsi+rcx*4+8]
	subss	xmm7, xmm2
	subss	xmm6, xmm3

; 214  : 
; 215  :     for (GLint i = 0; i < 6; i++)
; 216  :     {
; 217  :         getNormal3p(v_trapezoid[TquadIndices[i][0]][0], v_trapezoid[TquadIndices[i][0]][1], v_trapezoid[TquadIndices[i][0]][2],

	lea	rcx, QWORD PTR [rax+rax*2]

; 121  :     Vz = z3 - z1;

	movss	xmm4, DWORD PTR [rsi+rcx*4+8]
	movss	xmm5, DWORD PTR [rsi+rcx*4+4]
	subss	xmm4, xmm3
	movss	xmm1, DWORD PTR [rsi+rcx*4]
	subss	xmm5, xmm2
	subss	xmm1, xmm0

; 122  : 
; 123  :     Nx = Uy * Vz - Uz * Vy;
; 124  :     Ny = Uz * Vx - Ux * Vz;

	movaps	xmm3, xmm4
	mulss	xmm4, xmm7

; 125  :     Nz = Ux * Vy - Uy * Vx;

	movaps	xmm2, xmm5
	mulss	xmm3, xmm8
	movaps	xmm0, xmm1
	mulss	xmm5, xmm6
	mulss	xmm0, xmm7
	mulss	xmm2, xmm8
	subss	xmm4, xmm5
	mulss	xmm1, xmm6
	subss	xmm2, xmm0

; 126  : 
; 127  :     glNormal3f(Nx, Ny, Nz);

	movaps	xmm0, xmm4
	subss	xmm1, xmm3
	call	QWORD PTR __imp_glNormal3f

; 218  :             v_trapezoid[TquadIndices[i][1]][0], v_trapezoid[TquadIndices[i][1]][1], v_trapezoid[TquadIndices[i][1]][2],
; 219  :             v_trapezoid[TquadIndices[i][2]][0], v_trapezoid[TquadIndices[i][2]][1], v_trapezoid[TquadIndices[i][2]][2]);
; 220  :         // ÁîªÂõõ‰∏™ÁÇπ
; 221  :         glVertex3fv(&v_trapezoid[TquadIndices[i][0]][0]);

	movzx	eax, BYTE PTR [rbx-1]
	lea	rcx, QWORD PTR [rax+rax*2]
	lea	rcx, QWORD PTR [rsi+rcx*4]
	call	QWORD PTR __imp_glVertex3fv

; 222  :         glVertex3fv(&v_trapezoid[TquadIndices[i][1]][0]);

	movzx	eax, BYTE PTR [rbx]
	lea	rcx, QWORD PTR [rax+rax*2]
	lea	rcx, QWORD PTR [rsi+rcx*4]
	call	QWORD PTR __imp_glVertex3fv

; 223  :         glVertex3fv(&v_trapezoid[TquadIndices[i][2]][0]);

	movzx	eax, BYTE PTR [rbx+1]
	lea	rcx, QWORD PTR [rax+rax*2]
	lea	rcx, QWORD PTR [rsi+rcx*4]
	call	QWORD PTR __imp_glVertex3fv

; 224  :         glVertex3fv(&v_trapezoid[TquadIndices[i][3]][0]);

	movzx	eax, BYTE PTR [rbx+2]
	lea	rcx, QWORD PTR [rax+rax*2]
	lea	rcx, QWORD PTR [rsi+rcx*4]
	call	QWORD PTR __imp_glVertex3fv
	add	rbx, 4
	sub	rdi, 1
	jne	$LL4@drawTrapez

; 225  :     }
; 226  :     glEnd();

	call	QWORD PTR __imp_glEnd

; 227  : }

	mov	rcx, QWORD PTR __$ArrayPad$[rsp]
	xor	rcx, rsp
	call	__security_check_cookie
	lea	r11, QWORD PTR [rsp+176]
	movaps	xmm6, XMMWORD PTR [r11-16]
	movaps	xmm7, XMMWORD PTR [r11-32]
	movaps	xmm8, XMMWORD PTR [r11-48]
	mov	rsp, r11
	pop	rdi
	pop	rsi
	pop	rbx
	ret	0
?drawTrapezoid@@YAXMMMMMMM@Z ENDP			; drawTrapezoid
_TEXT	ENDS
; Function compile flags: /Ogtpy
; File E:\xxxDATA\¥Û»˝…œ\–Èƒ‚œ÷ µ\22120111 –‹œËœË OpenGL¥Û◊˜“µ\room\room\room.cpp
;	COMDAT ?drawSphere@@YAXMMMMMMM@Z
_TEXT	SEGMENT
mat_shininess$ = 32
mat_ambient$ = 40
mat_diffuse$ = 56
mat_specular$ = 72
__$ArrayPad$ = 88
difX$ = 112
difY$ = 120
difZ$ = 128
ambX$ = 136
ambY$ = 144
ambZ$ = 152
shine$ = 160
?drawSphere@@YAXMMMMMMM@Z PROC				; drawSphere, COMDAT

; 234  : {

$LN12:
	sub	rsp, 104				; 00000068H
	mov	rax, QWORD PTR __security_cookie
	xor	rax, rsp
	mov	QWORD PTR __$ArrayPad$[rsp], rax

; 235  :     GLfloat no_mat[] = { 0.0, 0.0, 0.0, 1.0 };
; 236  :     GLfloat mat_ambient[] = { ambX, ambY, ambZ, 1.0 };
; 237  :     GLfloat mat_diffuse[] = { difX, difY, difZ, 1.0 };

	movss	DWORD PTR mat_diffuse$[rsp], xmm0

; 238  :     GLfloat mat_specular[] = { 1.0, 1.0, 1.0, 1.0 };
; 239  :     GLfloat mat_shininess[] = { shine };
; 240  : 
; 241  :     //ËÆæÁΩÆÊùêÊñôÂ±ûÊÄß
; 242  :     glMaterialfv(GL_FRONT, GL_AMBIENT, mat_ambient);    // ÊùêË¥®ÁöÑÁéØÂ¢ÉÈ¢úËâ≤

	lea	r8, QWORD PTR mat_ambient$[rsp]
	movaps	xmm0, XMMWORD PTR __xmm@3f8000003f8000003f8000003f800000
	movaps	xmm5, xmm2
	movss	xmm2, DWORD PTR ambZ$[rsp]
	mov	edx, 4608				; 00001200H
	movups	XMMWORD PTR mat_specular$[rsp], xmm0
	mov	ecx, 1028				; 00000404H
	mov	DWORD PTR mat_ambient$[rsp+12], 1065353216 ; 3f800000H
	movss	xmm0, DWORD PTR shine$[rsp]
	movss	DWORD PTR mat_ambient$[rsp], xmm3
	movss	xmm3, DWORD PTR ambY$[rsp]
	movss	DWORD PTR mat_shininess$[rsp], xmm0
	movss	DWORD PTR mat_ambient$[rsp+4], xmm3
	movss	DWORD PTR mat_ambient$[rsp+8], xmm2
	movss	DWORD PTR mat_diffuse$[rsp+4], xmm1
	movss	DWORD PTR mat_diffuse$[rsp+8], xmm5
	mov	DWORD PTR mat_diffuse$[rsp+12], 1065353216 ; 3f800000H
	call	QWORD PTR __imp_glMaterialfv

; 243  :     glMaterialfv(GL_FRONT, GL_DIFFUSE, mat_diffuse);    // ÊùêË¥®ÁöÑÊï£Â∞ÑÈ¢úËâ≤

	lea	r8, QWORD PTR mat_diffuse$[rsp]
	mov	edx, 4609				; 00001201H
	mov	ecx, 1028				; 00000404H
	call	QWORD PTR __imp_glMaterialfv

; 244  :     glMaterialfv(GL_FRONT, GL_SPECULAR, mat_specular);    // ÊùêË¥®ÁöÑÈïúÈù¢ÂèçÂ∞ÑÈ¢úËâ≤

	lea	r8, QWORD PTR mat_specular$[rsp]
	mov	edx, 4610				; 00001202H
	mov	ecx, 1028				; 00000404H
	call	QWORD PTR __imp_glMaterialfv

; 245  :     glMaterialfv(GL_FRONT, GL_SHININESS, mat_shininess);    // ÈïúÈù¢ÂèçÂ∞ÑÊåáÊï∞

	lea	r8, QWORD PTR mat_shininess$[rsp]
	mov	edx, 5633				; 00001601H
	mov	ecx, 1028				; 00000404H
	call	QWORD PTR __imp_glMaterialfv

; 246  : 
; 247  :     glutSolidSphere(3.0, 20, 16);    //ÂçäÂæÑ‰∏∫3.0, 20Êù°Á∫¨Á∫ø, 16Êù°ÁªèÁ∫ø

	movsd	xmm0, QWORD PTR __real@4008000000000000
	mov	edx, 20
	lea	r8d, QWORD PTR [rdx-4]
	call	QWORD PTR __imp_glutSolidSphere

; 248  : }

	mov	rcx, QWORD PTR __$ArrayPad$[rsp]
	xor	rcx, rsp
	call	__security_check_cookie
	add	rsp, 104				; 00000068H
	ret	0
?drawSphere@@YAXMMMMMMM@Z ENDP				; drawSphere
_TEXT	ENDS
; Function compile flags: /Ogtpy
; File E:\xxxDATA\¥Û»˝…œ\–Èƒ‚œ÷ µ\22120111 –‹œËœË OpenGL¥Û◊˜“µ\room\room\room.cpp
;	COMDAT ?room@@YAXXZ
_TEXT	SEGMENT
?room@@YAXXZ PROC					; room, COMDAT

; 253  : {

$LN4:
	mov	rax, rsp
	sub	rsp, 152				; 00000098H
	movaps	XMMWORD PTR [rax-24], xmm6
	movaps	XMMWORD PTR [rax-40], xmm7
	movaps	XMMWORD PTR [rax-56], xmm8
	movaps	XMMWORD PTR [rax-72], xmm9
	movaps	XMMWORD PTR [rax-88], xmm10
	movaps	XMMWORD PTR [rax-104], xmm11
	movaps	XMMWORD PTR [rax-120], xmm12

; 254  : 
; 255  : 
; 256  :      glPushMatrix();

	call	QWORD PTR __imp_glPushMatrix

; 257  :      glTranslated(-2, -0.5, 0);

	movsd	xmm1, QWORD PTR __real@bfe0000000000000
	xorps	xmm2, xmm2
	movsd	xmm0, QWORD PTR __real@c000000000000000
	call	QWORD PTR __imp_glTranslated

; 258  :      glScalef(5, 1, 5);

	movss	xmm12, DWORD PTR __real@40a00000
	movss	xmm11, DWORD PTR __real@3f800000
	movaps	xmm2, xmm12
	movaps	xmm1, xmm11
	movaps	xmm0, xmm12
	call	QWORD PTR __imp_glScalef

; 259  :      glEnable(GL_TEXTURE_2D);

	mov	ecx, 3553				; 00000de1H
	call	QWORD PTR __imp_glEnable

; 260  :      glBindTexture(GL_TEXTURE_2D, textureVec[0]);

	mov	edx, DWORD PTR ?textureVec@@3PAIA
	mov	ecx, 3553				; 00000de1H
	call	QWORD PTR __imp_glBindTexture

; 261  :      glBegin(GL_QUADS);

	mov	ecx, 7
	call	QWORD PTR __imp_glBegin
	xorps	xmm2, xmm2

; 262  :      glNormal3f(0, 1, 0);

	movaps	xmm1, xmm11
	xorps	xmm0, xmm0
	call	QWORD PTR __imp_glNormal3f
	xorps	xmm1, xmm1
	xorps	xmm0, xmm0

; 263  :      glTexCoord2f(0, 0); glVertex3f(0, 0, 3);

	call	QWORD PTR __imp_glTexCoord2f
	movss	xmm7, DWORD PTR __real@40400000
	xorps	xmm1, xmm1
	movaps	xmm2, xmm7
	xorps	xmm0, xmm0
	call	QWORD PTR __imp_glVertex3f

; 264  :      glTexCoord2f(8, 0); glVertex3f(3, 0, 3);

	movss	xmm6, DWORD PTR __real@41000000
	xorps	xmm1, xmm1
	movaps	xmm0, xmm6
	call	QWORD PTR __imp_glTexCoord2f
	movaps	xmm2, xmm7
	xorps	xmm1, xmm1
	movaps	xmm0, xmm7
	call	QWORD PTR __imp_glVertex3f

; 265  :      glTexCoord2f(8, 8); glVertex3f(3, 0, 0);

	movaps	xmm1, xmm6
	movaps	xmm0, xmm6
	call	QWORD PTR __imp_glTexCoord2f
	xorps	xmm2, xmm2
	xorps	xmm1, xmm1
	movaps	xmm0, xmm7
	call	QWORD PTR __imp_glVertex3f

; 266  :      glTexCoord2f(0, 8); glVertex3f(0, 0, 0);

	movaps	xmm1, xmm6
	xorps	xmm0, xmm0
	call	QWORD PTR __imp_glTexCoord2f
	xorps	xmm2, xmm2
	xorps	xmm1, xmm1
	xorps	xmm0, xmm0
	call	QWORD PTR __imp_glVertex3f

; 267  :      glEnd();

	call	QWORD PTR __imp_glEnd

; 268  :      glDisable(GL_TEXTURE_2D);

	mov	ecx, 3553				; 00000de1H
	call	QWORD PTR __imp_glDisable

; 269  :      glPopMatrix();

	call	QWORD PTR __imp_glPopMatrix

; 270  : 
; 271  :      glPushMatrix();

	call	QWORD PTR __imp_glPushMatrix

; 272  :      glEnable(GL_TEXTURE_2D);

	mov	ecx, 3553				; 00000de1H
	call	QWORD PTR __imp_glEnable

; 273  :      glBindTexture(GL_TEXTURE_2D, textureVec[1]);

	mov	edx, DWORD PTR ?textureVec@@3PAIA+4
	mov	ecx, 3553				; 00000de1H
	call	QWORD PTR __imp_glBindTexture

; 274  :      glBegin(GL_QUADS);

	mov	ecx, 7
	call	QWORD PTR __imp_glBegin
	xorps	xmm2, xmm2
	xorps	xmm1, xmm1

; 275  :      glNormal3f(1, 0, 0);

	movaps	xmm0, xmm11
	call	QWORD PTR __imp_glNormal3f
	xorps	xmm1, xmm1
	xorps	xmm0, xmm0

; 276  :      glTexCoord2f(0, 0); glVertex3f(-1.0, -0.5, 0);

	call	QWORD PTR __imp_glTexCoord2f
	movss	xmm9, DWORD PTR __real@bf000000
	xorps	xmm2, xmm2
	movaps	xmm1, xmm9
	movss	xmm8, DWORD PTR __real@bf800000
	movaps	xmm0, xmm8
	call	QWORD PTR __imp_glVertex3f
	xorps	xmm1, xmm1

; 277  :      glTexCoord2f(1, 0); glVertex3f(-1.0, -0.5 ,15);

	movaps	xmm0, xmm11
	call	QWORD PTR __imp_glTexCoord2f
	movss	xmm10, DWORD PTR __real@41700000
	movaps	xmm1, xmm9
	movaps	xmm2, xmm10
	movaps	xmm0, xmm8
	call	QWORD PTR __imp_glVertex3f

; 278  :      glTexCoord2f(1, 1); glVertex3f(-1.0, 5, 15);

	movaps	xmm1, xmm11
	movaps	xmm0, xmm11
	call	QWORD PTR __imp_glTexCoord2f
	movaps	xmm2, xmm10
	movaps	xmm1, xmm12
	movaps	xmm0, xmm8
	call	QWORD PTR __imp_glVertex3f

; 279  :      glTexCoord2f(0, 1); glVertex3f(-1.0, 5, 0);

	movaps	xmm1, xmm11
	xorps	xmm0, xmm0
	call	QWORD PTR __imp_glTexCoord2f
	xorps	xmm2, xmm2
	movaps	xmm1, xmm12
	movaps	xmm0, xmm8
	call	QWORD PTR __imp_glVertex3f

; 280  :      glEnd();

	call	QWORD PTR __imp_glEnd

; 281  :      glDisable(GL_TEXTURE_2D);

	mov	ecx, 3553				; 00000de1H
	call	QWORD PTR __imp_glDisable

; 282  :      glPopMatrix();

	call	QWORD PTR __imp_glPopMatrix

; 283  : 
; 284  : 
; 285  :      glPushMatrix();

	call	QWORD PTR __imp_glPushMatrix

; 286  :      glEnable(GL_TEXTURE_2D);

	mov	ecx, 3553				; 00000de1H
	call	QWORD PTR __imp_glEnable

; 287  :      glBindTexture(GL_TEXTURE_2D, textureVec[1]);

	mov	edx, DWORD PTR ?textureVec@@3PAIA+4
	mov	ecx, 3553				; 00000de1H
	call	QWORD PTR __imp_glBindTexture

; 288  :      glBegin(GL_QUADS);

	mov	ecx, 7
	call	QWORD PTR __imp_glBegin
	xorps	xmm2, xmm2
	xorps	xmm1, xmm1

; 289  :      glNormal3f(-1, 0, 0);

	movaps	xmm0, xmm8
	call	QWORD PTR __imp_glNormal3f
	xorps	xmm1, xmm1
	xorps	xmm0, xmm0

; 290  :      glTexCoord2f(0, 0); glVertex3f(13, -0.5, 0);

	call	QWORD PTR __imp_glTexCoord2f
	movss	xmm7, DWORD PTR __real@41500000
	xorps	xmm2, xmm2
	movaps	xmm0, xmm7
	movaps	xmm1, xmm9
	call	QWORD PTR __imp_glVertex3f
	xorps	xmm1, xmm1

; 291  :      glTexCoord2f(1, 0); glVertex3f(13, -0.5, 15);

	movaps	xmm0, xmm11
	call	QWORD PTR __imp_glTexCoord2f
	movaps	xmm2, xmm10
	movaps	xmm1, xmm9
	movaps	xmm0, xmm7
	call	QWORD PTR __imp_glVertex3f

; 292  :      glTexCoord2f(1, 1); glVertex3f(13, 5, 15);

	movaps	xmm1, xmm11
	movaps	xmm0, xmm11
	call	QWORD PTR __imp_glTexCoord2f
	movaps	xmm2, xmm10
	movaps	xmm1, xmm12
	movaps	xmm0, xmm7
	call	QWORD PTR __imp_glVertex3f

; 293  :      glTexCoord2f(0, 1); glVertex3f(13, 5, 0);

	movaps	xmm1, xmm11
	xorps	xmm0, xmm0
	call	QWORD PTR __imp_glTexCoord2f
	xorps	xmm2, xmm2
	movaps	xmm1, xmm12
	movaps	xmm0, xmm7
	call	QWORD PTR __imp_glVertex3f

; 294  :      glEnd();

	call	QWORD PTR __imp_glEnd

; 295  :      glDisable(GL_TEXTURE_2D);

	mov	ecx, 3553				; 00000de1H
	call	QWORD PTR __imp_glDisable

; 296  :      glPopMatrix();

	call	QWORD PTR __imp_glPopMatrix

; 297  : 
; 298  : 
; 299  :      glPushMatrix();

	call	QWORD PTR __imp_glPushMatrix

; 300  :      glEnable(GL_TEXTURE_2D);

	mov	ecx, 3553				; 00000de1H
	call	QWORD PTR __imp_glEnable

; 301  :      glBindTexture(GL_TEXTURE_2D, textureVec[1]);

	mov	edx, DWORD PTR ?textureVec@@3PAIA+4
	mov	ecx, 3553				; 00000de1H
	call	QWORD PTR __imp_glBindTexture

; 302  :      glBegin(GL_QUADS);

	mov	ecx, 7
	call	QWORD PTR __imp_glBegin

; 303  :      glNormal3f(0, 0, 1);

	movaps	xmm2, xmm11
	xorps	xmm1, xmm1
	xorps	xmm0, xmm0
	call	QWORD PTR __imp_glNormal3f
	xorps	xmm1, xmm1
	xorps	xmm0, xmm0

; 304  :      glTexCoord2f(0, 0); glVertex3f(-2, -0.5, 0);

	call	QWORD PTR __imp_glTexCoord2f
	movss	xmm6, DWORD PTR __real@c0000000
	xorps	xmm2, xmm2
	movaps	xmm0, xmm6
	movaps	xmm1, xmm9
	call	QWORD PTR __imp_glVertex3f
	xorps	xmm1, xmm1

; 305  :      glTexCoord2f(1, 0); glVertex3f(13, -0.5, 0);

	movaps	xmm0, xmm11
	call	QWORD PTR __imp_glTexCoord2f
	xorps	xmm2, xmm2
	movaps	xmm1, xmm9
	movaps	xmm0, xmm7
	call	QWORD PTR __imp_glVertex3f

; 306  :      glTexCoord2f(1, 1); glVertex3f(13, 5, 0);

	movaps	xmm1, xmm11
	movaps	xmm0, xmm11
	call	QWORD PTR __imp_glTexCoord2f
	xorps	xmm2, xmm2
	movaps	xmm1, xmm12
	movaps	xmm0, xmm7
	call	QWORD PTR __imp_glVertex3f

; 307  :      glTexCoord2f(0, 1); glVertex3f(-2, 5, 0);

	movaps	xmm1, xmm11
	xorps	xmm0, xmm0
	call	QWORD PTR __imp_glTexCoord2f
	xorps	xmm2, xmm2
	movaps	xmm1, xmm12
	movaps	xmm0, xmm6
	call	QWORD PTR __imp_glVertex3f

; 308  :      glEnd();

	call	QWORD PTR __imp_glEnd

; 309  :      glDisable(GL_TEXTURE_2D);

	mov	ecx, 3553				; 00000de1H
	call	QWORD PTR __imp_glDisable

; 310  :      glPopMatrix();

	call	QWORD PTR __imp_glPopMatrix

; 311  : 
; 312  : 
; 313  :      glPushMatrix();

	call	QWORD PTR __imp_glPushMatrix

; 314  :      glEnable(GL_TEXTURE_2D);

	mov	ecx, 3553				; 00000de1H
	call	QWORD PTR __imp_glEnable

; 315  :      glBindTexture(GL_TEXTURE_2D, textureVec[1]);

	mov	edx, DWORD PTR ?textureVec@@3PAIA+4
	mov	ecx, 3553				; 00000de1H
	call	QWORD PTR __imp_glBindTexture

; 316  :      glBegin(GL_QUADS);

	mov	ecx, 7
	call	QWORD PTR __imp_glBegin

; 317  :      glNormal3f(0, 0, -1);

	movaps	xmm2, xmm8
	xorps	xmm1, xmm1
	xorps	xmm0, xmm0
	call	QWORD PTR __imp_glNormal3f
	xorps	xmm1, xmm1
	xorps	xmm0, xmm0

; 318  :      glTexCoord2f(0, 0); glVertex3f(13, -0.5, 15);

	call	QWORD PTR __imp_glTexCoord2f
	movaps	xmm2, xmm10
	movaps	xmm1, xmm9
	movaps	xmm0, xmm7
	call	QWORD PTR __imp_glVertex3f
	xorps	xmm1, xmm1

; 319  :      glTexCoord2f(1, 0); glVertex3f(-2, -0.5, 15);

	movaps	xmm0, xmm11
	call	QWORD PTR __imp_glTexCoord2f
	movaps	xmm2, xmm10
	movaps	xmm1, xmm9
	movaps	xmm0, xmm6
	call	QWORD PTR __imp_glVertex3f

; 320  :      glTexCoord2f(1, 1); glVertex3f(-2, 5, 15);

	movaps	xmm1, xmm11
	movaps	xmm0, xmm11
	call	QWORD PTR __imp_glTexCoord2f
	movaps	xmm2, xmm10
	movaps	xmm1, xmm12
	movaps	xmm0, xmm6
	call	QWORD PTR __imp_glVertex3f

; 321  :      glTexCoord2f(0, 1); glVertex3f(13, 5, 15);

	movaps	xmm1, xmm11
	xorps	xmm0, xmm0
	call	QWORD PTR __imp_glTexCoord2f
	movaps	xmm2, xmm10
	movaps	xmm1, xmm12
	movaps	xmm0, xmm7
	call	QWORD PTR __imp_glVertex3f

; 322  :      glEnd();

	call	QWORD PTR __imp_glEnd

; 323  :      glDisable(GL_TEXTURE_2D);

	mov	ecx, 3553				; 00000de1H
	call	QWORD PTR __imp_glDisable

; 325  : 
; 326  : }

	movaps	xmm7, XMMWORD PTR [rsp+112]
	lea	r11, QWORD PTR [rsp+152]
	movaps	xmm6, XMMWORD PTR [r11-24]
	movaps	xmm8, XMMWORD PTR [r11-56]
	movaps	xmm9, XMMWORD PTR [r11-72]
	movaps	xmm10, XMMWORD PTR [r11-88]
	movaps	xmm11, XMMWORD PTR [r11-104]
	movaps	xmm12, XMMWORD PTR [r11-120]
	mov	rsp, r11

; 324  :      glPopMatrix();

	rex_jmp	QWORD PTR __imp_glPopMatrix
?room@@YAXXZ ENDP					; room
_TEXT	ENDS
; Function compile flags: /Ogtpy
; File E:\xxxDATA\¥Û»˝…œ\–Èƒ‚œ÷ µ\22120111 –‹œËœË OpenGL¥Û◊˜“µ\room\room\room.cpp
;	COMDAT ?bed@@YAXXZ
_TEXT	SEGMENT
?bed@@YAXXZ PROC					; bed, COMDAT

; 329  : {

$LN4:
	mov	rax, rsp
	sub	rsp, 152				; 00000098H
	movaps	XMMWORD PTR [rax-24], xmm6
	movaps	XMMWORD PTR [rax-40], xmm9
	movaps	XMMWORD PTR [rax-56], xmm10
	movaps	XMMWORD PTR [rax-72], xmm11
	movaps	XMMWORD PTR [rax-88], xmm12

; 330  :     //bed headboard
; 331  :     glPushMatrix();

	call	QWORD PTR __imp_glPushMatrix

; 332  :     glScalef(0.1, 0.5, 0.9);

	movss	xmm10, DWORD PTR __real@3f000000
	movss	xmm12, DWORD PTR __real@3dcccccd
	movaps	xmm1, xmm10
	movss	xmm2, DWORD PTR __real@3f666666
	movaps	xmm0, xmm12
	call	QWORD PTR __imp_glScalef

; 333  :     glTranslatef(-2, -0.5, 6.2);

	movss	xmm6, DWORD PTR __real@bf000000
	movss	xmm2, DWORD PTR __real@40c66666
	movaps	xmm1, xmm6
	movss	xmm0, DWORD PTR __real@c0000000
	call	QWORD PTR __imp_glTranslatef

; 334  :     drawCube1(0.2, 0.2, 0.2, 0.1, 0.1, 0.05);

	movss	xmm0, DWORD PTR __real@3d4ccccd
	movaps	xmm3, xmm12
	movss	xmm9, DWORD PTR __real@3e4ccccd
	movss	xmm11, DWORD PTR __real@42480000
	movaps	xmm2, xmm9
	movss	DWORD PTR [rsp+48], xmm11
	movaps	xmm1, xmm9
	movss	DWORD PTR [rsp+40], xmm0
	movaps	xmm0, xmm9
	movss	DWORD PTR [rsp+32], xmm12
	call	?drawCube1@@YAXMMMMMMM@Z		; drawCube1

; 335  :     glPopMatrix();

	call	QWORD PTR __imp_glPopMatrix

; 336  : 
; 337  :     //bed body
; 338  :     glPushMatrix();

	call	QWORD PTR __imp_glPushMatrix

; 339  :     glScalef(1, 0.2, 0.9); //1, 0.2, 0.9

	movss	xmm2, DWORD PTR __real@3f666666
	movaps	xmm1, xmm9
	movss	xmm0, DWORD PTR __real@3f800000
	call	QWORD PTR __imp_glScalef

; 340  :     glTranslatef(0, -0.5, 6.2);

	movss	xmm2, DWORD PTR __real@40c66666
	movaps	xmm1, xmm6
	xorps	xmm0, xmm0
	call	QWORD PTR __imp_glTranslatef

; 341  :     drawCube1(0.5, 0.5, 0.5, 0.25, 0.25, 0.25);

	movss	xmm3, DWORD PTR __real@3e800000
	movaps	xmm2, xmm10
	movss	DWORD PTR [rsp+48], xmm11
	movaps	xmm1, xmm10
	movss	DWORD PTR [rsp+40], xmm3
	movaps	xmm0, xmm10
	movss	DWORD PTR [rsp+32], xmm3
	call	?drawCube1@@YAXMMMMMMM@Z		; drawCube1

; 342  :     glPopMatrix();

	call	QWORD PTR __imp_glPopMatrix

; 343  : 
; 344  :     //pillow 
; 345  :     glPushMatrix();

	call	QWORD PTR __imp_glPushMatrix

; 346  :     glTranslatef(0.5, 0.5, 6);

	movss	xmm2, DWORD PTR __real@40c00000
	movaps	xmm1, xmm10
	movaps	xmm0, xmm10
	call	QWORD PTR __imp_glTranslatef

; 347  :     glRotatef(20, 0, 0, 1);

	movss	xmm3, DWORD PTR __real@3f800000
	xorps	xmm2, xmm2
	movss	xmm0, DWORD PTR __real@41a00000
	xorps	xmm1, xmm1
	call	QWORD PTR __imp_glRotatef

; 348  :     glScalef(0.1, 0.15, 0.6);

	movss	xmm6, DWORD PTR __real@3f19999a
	movaps	xmm0, xmm12
	movss	xmm1, DWORD PTR __real@3e19999a
	movaps	xmm2, xmm6
	call	QWORD PTR __imp_glScalef

; 349  :     drawCube1(0.8, 0.6, 0.6, 0.4, 0.2, 0.2);

	movss	xmm3, DWORD PTR __real@3ecccccd
	movaps	xmm2, xmm6
	movss	xmm0, DWORD PTR __real@3f4ccccd
	movaps	xmm1, xmm6
	movss	DWORD PTR [rsp+48], xmm11
	movss	DWORD PTR [rsp+40], xmm9
	movss	DWORD PTR [rsp+32], xmm9
	call	?drawCube1@@YAXMMMMMMM@Z		; drawCube1

; 351  : 
; 352  : 
; 353  : 
; 354  : }

	movaps	xmm6, XMMWORD PTR [rsp+128]
	movaps	xmm9, XMMWORD PTR [rsp+112]
	movaps	xmm10, XMMWORD PTR [rsp+96]
	movaps	xmm11, XMMWORD PTR [rsp+80]
	movaps	xmm12, XMMWORD PTR [rsp+64]
	add	rsp, 152				; 00000098H

; 350  :     glPopMatrix();

	rex_jmp	QWORD PTR __imp_glPopMatrix
?bed@@YAXXZ ENDP					; bed
_TEXT	ENDS
; Function compile flags: /Ogtpy
; File E:\xxxDATA\¥Û»˝…œ\–Èƒ‚œ÷ µ\22120111 –‹œËœË OpenGL¥Û◊˜“µ\room\room\room.cpp
;	COMDAT ?bedsideDrawer@@YAXXZ
_TEXT	SEGMENT
mat_shininess$1 = 64
mat_ambient$2 = 72
mat_diffuse$3 = 88
mat_specular$4 = 104
__$ArrayPad$ = 120
?bedsideDrawer@@YAXXZ PROC				; bedsideDrawer, COMDAT

; 357  : {

$LN14:
	mov	rax, rsp
	sub	rsp, 184				; 000000b8H
	movaps	XMMWORD PTR [rax-24], xmm6
	movaps	XMMWORD PTR [rax-40], xmm7
	movaps	XMMWORD PTR [rax-56], xmm8
	mov	rax, QWORD PTR __security_cookie
	xor	rax, rsp
	mov	QWORD PTR __$ArrayPad$[rsp], rax

; 358  :     //bedside drawer *************************************
; 359  : 
; 360  :       //side drawer
; 361  :     glPushMatrix();

	call	QWORD PTR __imp_glPushMatrix

; 362  :     glTranslatef(0.5, -0.1, 8.7); //0.5,-0.1,9

	movss	xmm2, DWORD PTR __real@410b3333
	movss	xmm1, DWORD PTR __real@bdcccccd
	movss	xmm0, DWORD PTR __real@3f000000
	call	QWORD PTR __imp_glTranslatef

; 363  :     glScalef(0.12, 0.2, 0.23);

	movss	xmm8, DWORD PTR __real@3e4ccccd
	movss	xmm2, DWORD PTR __real@3e6b851f
	movaps	xmm1, xmm8
	movss	xmm0, DWORD PTR __real@3df5c28f
	call	QWORD PTR __imp_glScalef

; 364  :     drawCube1(0.2, 0.1, 0.1, 0.1, 0.1, 0.05);

	movss	xmm6, DWORD PTR __real@3dcccccd
	movss	xmm0, DWORD PTR __real@3d4ccccd
	movaps	xmm3, xmm6
	movss	xmm7, DWORD PTR __real@42480000
	movaps	xmm2, xmm6
	movss	DWORD PTR [rsp+48], xmm7
	movaps	xmm1, xmm6
	movss	DWORD PTR [rsp+40], xmm0
	movaps	xmm0, xmm8
	movss	DWORD PTR [rsp+32], xmm6
	call	?drawCube1@@YAXMMMMMMM@Z		; drawCube1

; 365  :     glPopMatrix();

	call	QWORD PTR __imp_glPopMatrix

; 366  : 
; 367  :     //side drawer's drawer
; 368  :     glPushMatrix();

	call	QWORD PTR __imp_glPushMatrix

; 369  :     glTranslatef(0.88, 0, 8.8);

	movss	xmm2, DWORD PTR __real@410ccccd
	xorps	xmm1, xmm1
	movss	xmm0, DWORD PTR __real@3f6147ae
	call	QWORD PTR __imp_glTranslatef

; 370  :     glScalef(0.0001, 0.11, 0.18);

	movss	xmm2, DWORD PTR __real@3e3851ec
	movss	xmm1, DWORD PTR __real@3de147ae
	movss	xmm0, DWORD PTR __real@38d1b717
	call	QWORD PTR __imp_glScalef

; 371  :     drawCube1(0.2, 0.2, 0.2, 0.15, 0.1, 0.1);

	movss	DWORD PTR [rsp+48], xmm7
	movaps	xmm2, xmm8
	movss	DWORD PTR [rsp+40], xmm6
	movaps	xmm1, xmm8
	movss	DWORD PTR [rsp+32], xmm6
	movaps	xmm0, xmm8
	movss	xmm6, DWORD PTR __real@3e19999a
	movaps	xmm3, xmm6
	call	?drawCube1@@YAXMMMMMMM@Z		; drawCube1

; 372  :     glPopMatrix();

	call	QWORD PTR __imp_glPopMatrix

; 373  : 
; 374  :     //side drawer's knob
; 375  :     glPushMatrix();

	call	QWORD PTR __imp_glPushMatrix

; 376  :     glTranslatef(0.9, 0.15, 9.05);

	movss	xmm2, DWORD PTR __real@4110cccd
	movaps	xmm1, xmm6
	movss	xmm0, DWORD PTR __real@3f666666
	call	QWORD PTR __imp_glTranslatef

; 377  :     glScalef(0.01, 0.02, 0.02);

	movss	xmm1, DWORD PTR __real@3ca3d70a
	movss	xmm0, DWORD PTR __real@3c23d70a
	movaps	xmm2, xmm1
	call	QWORD PTR __imp_glScalef

; 236  :     GLfloat mat_ambient[] = { ambX, ambY, ambZ, 1.0 };

	movaps	xmm0, XMMWORD PTR __xmm@3f800000000000003d4ccccd3d4ccccd

; 237  :     GLfloat mat_diffuse[] = { difX, difY, difZ, 1.0 };
; 238  :     GLfloat mat_specular[] = { 1.0, 1.0, 1.0, 1.0 };
; 239  :     GLfloat mat_shininess[] = { shine };
; 240  : 
; 241  :     //ËÆæÁΩÆÊùêÊñôÂ±ûÊÄß
; 242  :     glMaterialfv(GL_FRONT, GL_AMBIENT, mat_ambient);    // ÊùêË¥®ÁöÑÁéØÂ¢ÉÈ¢úËâ≤

	lea	r8, QWORD PTR mat_ambient$2[rsp]
	movaps	xmm1, XMMWORD PTR __xmm@3f800000000000003dcccccd3e4ccccd
	mov	edx, 4608				; 00001200H
	movups	XMMWORD PTR mat_ambient$2[rsp], xmm0
	mov	ecx, 1028				; 00000404H
	movaps	xmm0, XMMWORD PTR __xmm@3f8000003f8000003f8000003f800000
	movups	XMMWORD PTR mat_specular$4[rsp], xmm0
	movss	xmm0, DWORD PTR __real@42b40000
	movss	DWORD PTR mat_shininess$1[rsp], xmm0
	movups	XMMWORD PTR mat_diffuse$3[rsp], xmm1
	call	QWORD PTR __imp_glMaterialfv

; 243  :     glMaterialfv(GL_FRONT, GL_DIFFUSE, mat_diffuse);    // ÊùêË¥®ÁöÑÊï£Â∞ÑÈ¢úËâ≤

	lea	r8, QWORD PTR mat_diffuse$3[rsp]
	mov	edx, 4609				; 00001201H
	mov	ecx, 1028				; 00000404H
	call	QWORD PTR __imp_glMaterialfv

; 244  :     glMaterialfv(GL_FRONT, GL_SPECULAR, mat_specular);    // ÊùêË¥®ÁöÑÈïúÈù¢ÂèçÂ∞ÑÈ¢úËâ≤

	lea	r8, QWORD PTR mat_specular$4[rsp]
	mov	edx, 4610				; 00001202H
	mov	ecx, 1028				; 00000404H
	call	QWORD PTR __imp_glMaterialfv

; 245  :     glMaterialfv(GL_FRONT, GL_SHININESS, mat_shininess);    // ÈïúÈù¢ÂèçÂ∞ÑÊåáÊï∞

	lea	r8, QWORD PTR mat_shininess$1[rsp]
	mov	edx, 5633				; 00001601H
	mov	ecx, 1028				; 00000404H
	call	QWORD PTR __imp_glMaterialfv

; 246  : 
; 247  :     glutSolidSphere(3.0, 20, 16);    //ÂçäÂæÑ‰∏∫3.0, 20Êù°Á∫¨Á∫ø, 16Êù°ÁªèÁ∫ø

	movsd	xmm0, QWORD PTR __real@4008000000000000
	mov	edx, 20
	lea	r8d, QWORD PTR [rdx-4]
	call	QWORD PTR __imp_glutSolidSphere

; 378  :     drawSphere(0.2, 0.1, 0.0, 0.05, 0.05, 0.0);
; 379  :     glPopMatrix();

	call	QWORD PTR __imp_glPopMatrix

; 380  : }

	mov	rcx, QWORD PTR __$ArrayPad$[rsp]
	xor	rcx, rsp
	call	__security_check_cookie
	lea	r11, QWORD PTR [rsp+184]
	movaps	xmm6, XMMWORD PTR [r11-24]
	movaps	xmm7, XMMWORD PTR [r11-40]
	movaps	xmm8, XMMWORD PTR [r11-56]
	mov	rsp, r11
	ret	0
?bedsideDrawer@@YAXXZ ENDP				; bedsideDrawer
_TEXT	ENDS
; Function compile flags: /Ogtpy
; File E:\xxxDATA\¥Û»˝…œ\–Èƒ‚œ÷ µ\22120111 –‹œËœË OpenGL¥Û◊˜“µ\room\room\room.cpp
;	COMDAT ?lamp@@YAXXZ
_TEXT	SEGMENT
?lamp@@YAXXZ PROC					; lamp, COMDAT

; 383  : {

$LN4:
	sub	rsp, 120				; 00000078H
	movaps	XMMWORD PTR [rsp+96], xmm7
	movaps	XMMWORD PTR [rsp+80], xmm9
	movaps	XMMWORD PTR [rsp+64], xmm10

; 384  :     //lamp base
; 385  :     glPushMatrix();

	call	QWORD PTR __imp_glPushMatrix

; 386  :     glTranslatef(.6, 0.5, 8.95);

	movss	xmm2, DWORD PTR __real@410f3333
	movss	xmm1, DWORD PTR __real@3f000000
	movss	xmm0, DWORD PTR __real@3f19999a
	call	QWORD PTR __imp_glTranslatef

; 387  :     glScalef(0.07, 0.02, 0.07);

	movss	xmm0, DWORD PTR __real@3d8f5c29
	movss	xmm1, DWORD PTR __real@3ca3d70a
	movaps	xmm2, xmm0
	call	QWORD PTR __imp_glScalef

; 388  :     drawCube1(0, 0, 0.4, 0, 0, 0.2);

	movss	xmm9, DWORD PTR __real@42480000
	xorps	xmm10, xmm10
	movss	xmm7, DWORD PTR __real@3e4ccccd
	xorps	xmm3, xmm3
	movss	xmm2, DWORD PTR __real@3ecccccd
	xorps	xmm1, xmm1
	movss	DWORD PTR [rsp+48], xmm9
	xorps	xmm0, xmm0
	movss	DWORD PTR [rsp+40], xmm7
	movss	DWORD PTR [rsp+32], xmm10
	call	?drawCube1@@YAXMMMMMMM@Z		; drawCube1

; 389  :     glPopMatrix();

	call	QWORD PTR __imp_glPopMatrix

; 390  : 
; 391  :     //lamp stand
; 392  :     glColor3f(1, 0, 0);

	movss	xmm0, DWORD PTR __real@3f800000
	xorps	xmm2, xmm2
	xorps	xmm1, xmm1
	call	QWORD PTR __imp_glColor3f

; 393  :     glPushMatrix();

	call	QWORD PTR __imp_glPushMatrix

; 394  :     glTranslatef(.7, 0.35, 9.05);

	movss	xmm2, DWORD PTR __real@4110cccd
	movss	xmm1, DWORD PTR __real@3eb33333
	movss	xmm0, DWORD PTR __real@3f333333
	call	QWORD PTR __imp_glTranslatef

; 395  :     glScalef(0.01, 0.2, 0.01);

	movss	xmm0, DWORD PTR __real@3c23d70a
	movaps	xmm1, xmm7
	movaps	xmm2, xmm0
	call	QWORD PTR __imp_glScalef

; 396  :     drawCube1(0, 0, 0.4, 0.0, 0.0, 0.2);

	movss	xmm2, DWORD PTR __real@3ecccccd
	xorps	xmm3, xmm3
	movss	DWORD PTR [rsp+48], xmm9
	xorps	xmm1, xmm1
	movss	DWORD PTR [rsp+40], xmm7
	xorps	xmm0, xmm0
	movss	DWORD PTR [rsp+32], xmm10
	call	?drawCube1@@YAXMMMMMMM@Z		; drawCube1

; 397  :     glPopMatrix();

	call	QWORD PTR __imp_glPopMatrix

; 398  : 
; 399  :     //lamp shade
; 400  :     glColor3f(0.000, 0.000, 0.545);

	movss	xmm2, DWORD PTR __real@3f0b851f
	xorps	xmm1, xmm1
	xorps	xmm0, xmm0
	call	QWORD PTR __imp_glColor3f

; 401  :     glPushMatrix();

	call	QWORD PTR __imp_glPushMatrix

; 402  :     glTranslatef(.6, 0.9, 8.9);

	movss	xmm2, DWORD PTR __real@410e6666
	movss	xmm1, DWORD PTR __real@3f666666
	movss	xmm0, DWORD PTR __real@3f19999a
	call	QWORD PTR __imp_glTranslatef

; 403  :     glScalef(0.08, 0.09, 0.08);

	movss	xmm0, DWORD PTR __real@3da3d70a
	movss	xmm1, DWORD PTR __real@3db851ec
	movaps	xmm2, xmm0
	call	QWORD PTR __imp_glScalef

; 404  :     drawTrapezoid(0.0, 0.0, 0.5, 0, 0, 0.25);

	movss	xmm1, DWORD PTR __real@3e800000
	xorps	xmm3, xmm3
	movss	xmm2, DWORD PTR __real@3f000000
	xorps	xmm0, xmm0
	movss	DWORD PTR [rsp+48], xmm9
	movss	DWORD PTR [rsp+40], xmm1
	xorps	xmm1, xmm1
	movss	DWORD PTR [rsp+32], xmm10
	call	?drawTrapezoid@@YAXMMMMMMM@Z		; drawTrapezoid

; 407  : }

	movaps	xmm7, XMMWORD PTR [rsp+96]
	movaps	xmm9, XMMWORD PTR [rsp+80]
	movaps	xmm10, XMMWORD PTR [rsp+64]
	add	rsp, 120				; 00000078H

; 405  :     
; 406  :     glPopMatrix();

	rex_jmp	QWORD PTR __imp_glPopMatrix
?lamp@@YAXXZ ENDP					; lamp
_TEXT	ENDS
; Function compile flags: /Ogtpy
; File E:\xxxDATA\¥Û»˝…œ\–Èƒ‚œ÷ µ\22120111 –‹œËœË OpenGL¥Û◊˜“µ\room\room\room.cpp
;	COMDAT ?Pic@@YAXXZ
_TEXT	SEGMENT
mat_shininess$ = 32
no_mat$ = 40
mat_diffuse$ = 56
mat_specular$ = 72
__$ArrayPad$ = 88
?Pic@@YAXXZ PROC					; Pic, COMDAT

; 410  : {

$LN20:
	sub	rsp, 136				; 00000088H
	movaps	XMMWORD PTR [rsp+112], xmm8
	movaps	XMMWORD PTR [rsp+96], xmm10
	mov	rax, QWORD PTR __security_cookie
	xor	rax, rsp
	mov	QWORD PTR __$ArrayPad$[rsp], rax

; 411  :        
; 412  :     glPushMatrix();

	call	QWORD PTR __imp_glPushMatrix

; 413  : 
; 414  :     GLfloat no_mat[] = { 0.1, 0.1, 0.1, 1.0 };
; 415  :     GLfloat mat_diffuse[] = { 1.0, 1.0, 1.0, 1.0 };

	movaps	xmm1, XMMWORD PTR __xmm@3f8000003f8000003f8000003f800000

; 416  :     GLfloat mat_specular[] = { 1.0, 1.0, 1.0, 1.0 };
; 417  :     GLfloat mat_shininess[] = { 32 };
; 418  : 
; 419  :     //ËÆæÁΩÆÊùêÊñôÂ±ûÊÄß
; 420  :     glMaterialfv(GL_FRONT, GL_AMBIENT, no_mat);    // ÊùêË¥®ÁöÑÁéØÂ¢ÉÈ¢úËâ≤

	lea	r8, QWORD PTR no_mat$[rsp]
	movaps	xmm0, XMMWORD PTR __xmm@3f8000003dcccccd3dcccccd3dcccccd
	mov	edx, 4608				; 00001200H
	movups	XMMWORD PTR no_mat$[rsp], xmm0
	mov	ecx, 1028				; 00000404H
	movaps	xmm0, xmm1
	movss	xmm0, DWORD PTR __real@42000000
	movss	DWORD PTR mat_shininess$[rsp], xmm0
	movups	XMMWORD PTR mat_diffuse$[rsp], xmm1
	movups	XMMWORD PTR mat_specular$[rsp], xmm1
	call	QWORD PTR __imp_glMaterialfv

; 421  :     glMaterialfv(GL_FRONT, GL_DIFFUSE, mat_diffuse);    // ÊùêË¥®ÁöÑÊï£Â∞ÑÈ¢úËâ≤

	lea	r8, QWORD PTR mat_diffuse$[rsp]
	mov	edx, 4609				; 00001201H
	mov	ecx, 1028				; 00000404H
	call	QWORD PTR __imp_glMaterialfv

; 422  :     glMaterialfv(GL_FRONT, GL_SPECULAR, mat_specular);    // ÊùêË¥®ÁöÑÈïúÈù¢ÂèçÂ∞ÑÈ¢úËâ≤

	lea	r8, QWORD PTR mat_specular$[rsp]
	mov	edx, 4610				; 00001202H
	mov	ecx, 1028				; 00000404H
	call	QWORD PTR __imp_glMaterialfv

; 423  :     glMaterialfv(GL_FRONT, GL_SHININESS, mat_shininess);    // ÈïúÈù¢ÂèçÂ∞ÑÊåáÊï∞

	lea	r8, QWORD PTR mat_shininess$[rsp]
	mov	edx, 5633				; 00001601H
	mov	ecx, 1028				; 00000404H
	call	QWORD PTR __imp_glMaterialfv

; 424  : 
; 425  :     glColor3f(1.0, 1.0, 1.0);

	movss	xmm10, DWORD PTR __real@3f800000
	movaps	xmm2, xmm10
	movaps	xmm1, xmm10
	movaps	xmm0, xmm10
	call	QWORD PTR __imp_glColor3f

; 426  :     glPushMatrix();

	call	QWORD PTR __imp_glPushMatrix

; 427  :     glEnable(GL_TEXTURE_2D);

	mov	ecx, 3553				; 00000de1H
	call	QWORD PTR __imp_glEnable

; 428  :     glBindTexture(GL_TEXTURE_2D, textureVec[2]);

	mov	edx, DWORD PTR ?textureVec@@3PAIA+8
	mov	ecx, 3553				; 00000de1H
	call	QWORD PTR __imp_glBindTexture

; 429  :     glBegin(GL_QUADS);

	mov	ecx, 7
	call	QWORD PTR __imp_glBegin
	xorps	xmm2, xmm2
	xorps	xmm1, xmm1

; 430  :     glNormal3f(1, 0, 0);

	movaps	xmm0, xmm10
	call	QWORD PTR __imp_glNormal3f
	xorps	xmm1, xmm1
	xorps	xmm0, xmm0

; 431  :     glTexCoord2f(0, 0); glVertex3f(-0.99, 1.4, 5);

	call	QWORD PTR __imp_glTexCoord2f
	movss	xmm8, DWORD PTR __real@bf7d70a4
	movss	xmm2, DWORD PTR __real@40a00000
	movaps	xmm0, xmm8
	movss	xmm1, DWORD PTR __real@3fb33333
	call	QWORD PTR __imp_glVertex3f
	xorps	xmm1, xmm1

; 432  :     glTexCoord2f(1, 0); glVertex3f(-0.99, 1.4, 7);

	movaps	xmm0, xmm10
	call	QWORD PTR __imp_glTexCoord2f
	movss	xmm2, DWORD PTR __real@40e00000
	movaps	xmm0, xmm8
	movss	xmm1, DWORD PTR __real@3fb33333
	call	QWORD PTR __imp_glVertex3f

; 433  :     glTexCoord2f(1, 1); glVertex3f(-0.99, 3.2, 7);

	movaps	xmm1, xmm10
	movaps	xmm0, xmm10
	call	QWORD PTR __imp_glTexCoord2f
	movss	xmm2, DWORD PTR __real@40e00000
	movaps	xmm0, xmm8
	movss	xmm1, DWORD PTR __real@404ccccd
	call	QWORD PTR __imp_glVertex3f

; 434  :     glTexCoord2f(0, 1); glVertex3f(-0.99, 3.2, 5);

	movaps	xmm1, xmm10
	xorps	xmm0, xmm0
	call	QWORD PTR __imp_glTexCoord2f
	movss	xmm2, DWORD PTR __real@40a00000
	movaps	xmm0, xmm8
	movss	xmm1, DWORD PTR __real@404ccccd
	call	QWORD PTR __imp_glVertex3f

; 435  :     glEnd();

	call	QWORD PTR __imp_glEnd

; 436  :     glDisable(GL_TEXTURE_2D);

	mov	ecx, 3553				; 00000de1H
	call	QWORD PTR __imp_glDisable

; 437  :     glPopMatrix();

	call	QWORD PTR __imp_glPopMatrix

; 438  :     glPopMatrix();

	call	QWORD PTR __imp_glPopMatrix

; 439  : }

	mov	rcx, QWORD PTR __$ArrayPad$[rsp]
	xor	rcx, rsp
	call	__security_check_cookie
	movaps	xmm8, XMMWORD PTR [rsp+112]
	movaps	xmm10, XMMWORD PTR [rsp+96]
	add	rsp, 136				; 00000088H
	ret	0
?Pic@@YAXXZ ENDP					; Pic
_TEXT	ENDS
; Function compile flags: /Ogtpy
; File E:\xxxDATA\¥Û»˝…œ\–Èƒ‚œ÷ µ\22120111 –‹œËœË OpenGL¥Û◊˜“µ\room\room\room.cpp
;	COMDAT ?wardrobe@@YAXXZ
_TEXT	SEGMENT
?wardrobe@@YAXXZ PROC					; wardrobe, COMDAT

; 442  : {

$LN4:
	mov	rax, rsp
	sub	rsp, 232				; 000000e8H
	movaps	XMMWORD PTR [rax-24], xmm6
	movaps	XMMWORD PTR [rax-40], xmm7
	movaps	XMMWORD PTR [rax-56], xmm8
	movaps	XMMWORD PTR [rax-72], xmm9
	movaps	XMMWORD PTR [rax-88], xmm10
	movaps	XMMWORD PTR [rax-104], xmm11
	movaps	XMMWORD PTR [rax-120], xmm12
	movaps	XMMWORD PTR [rsp+96], xmm13
	movaps	XMMWORD PTR [rsp+80], xmm14
	movaps	XMMWORD PTR [rsp+64], xmm15

; 443  :     //wardrobe
; 444  :     glPushMatrix();

	call	QWORD PTR __imp_glPushMatrix

; 445  :     glTranslatef(0, 0, 4);

	movss	xmm2, DWORD PTR __real@40800000
	xorps	xmm1, xmm1
	xorps	xmm0, xmm0
	xorps	xmm7, xmm7
	call	QWORD PTR __imp_glTranslatef

; 446  :     glScalef(0.12, 0.6, 0.4);

	movss	xmm9, DWORD PTR __real@3ecccccd
	movss	xmm6, DWORD PTR __real@3f19999a
	movaps	xmm2, xmm9
	movss	xmm0, DWORD PTR __real@3df5c28f
	movaps	xmm1, xmm6
	call	QWORD PTR __imp_glScalef

; 447  :     drawCube1(0.6, 0.3, 0.1, 0.3, 0.15, 0);

	movss	xmm13, DWORD PTR __real@3e99999a
	movaps	xmm0, xmm6
	movss	xmm14, DWORD PTR __real@42480000
	movaps	xmm3, xmm13
	movss	xmm12, DWORD PTR __real@3dcccccd
	movaps	xmm1, xmm13
	movss	xmm15, DWORD PTR __real@3e19999a
	movaps	xmm2, xmm12
	movss	DWORD PTR [rsp+48], xmm14
	movss	DWORD PTR [rsp+40], xmm7
	movss	DWORD PTR [rsp+32], xmm15
	call	?drawCube1@@YAXMMMMMMM@Z		; drawCube1

; 448  :     glPopMatrix();

	call	QWORD PTR __imp_glPopMatrix

; 449  : 
; 450  :     //wardrobe's 1st drawer
; 451  :     glPushMatrix();

	call	QWORD PTR __imp_glPushMatrix

; 452  :     glTranslatef(0.36, 1.5, 4.04);

	movss	xmm10, DWORD PTR __real@3fc00000
	movss	xmm8, DWORD PTR __real@3eb851ec
	movaps	xmm1, xmm10
	movss	xmm2, DWORD PTR __real@408147ae
	movaps	xmm0, xmm8
	call	QWORD PTR __imp_glTranslatef

; 453  :     glScalef(0.0001, 0.1, 0.4);

	movss	xmm7, DWORD PTR __real@38d1b717
	movaps	xmm2, xmm9
	movaps	xmm0, xmm7
	movaps	xmm1, xmm12
	call	QWORD PTR __imp_glScalef

; 454  :     drawCube1(0.4, 0.2, 0.2, 0.2, 0.1, 0.1);

	movss	xmm11, DWORD PTR __real@3e4ccccd
	movaps	xmm0, xmm9
	movss	DWORD PTR [rsp+48], xmm14
	movaps	xmm3, xmm11
	movss	DWORD PTR [rsp+40], xmm12
	movaps	xmm2, xmm11
	movaps	xmm1, xmm11
	movss	DWORD PTR [rsp+32], xmm12
	call	?drawCube1@@YAXMMMMMMM@Z		; drawCube1

; 455  :     glPopMatrix();

	call	QWORD PTR __imp_glPopMatrix

; 456  : 
; 457  :     //wardrobe's 2nd drawer
; 458  :     glPushMatrix();

	call	QWORD PTR __imp_glPushMatrix

; 459  :     glTranslatef(0.36, 1, 4.05);

	movss	xmm6, DWORD PTR __real@4081999a
	movaps	xmm0, xmm8
	movss	xmm1, DWORD PTR __real@3f800000
	movaps	xmm2, xmm6
	call	QWORD PTR __imp_glTranslatef

; 460  :     glScalef(0.0001, 0.1, 0.4);

	movaps	xmm2, xmm9
	movaps	xmm1, xmm12
	movaps	xmm0, xmm7
	call	QWORD PTR __imp_glScalef

; 461  :     drawCube1(0.4, 0.2, 0.2, 0.2, 0.1, 0.1);

	movss	DWORD PTR [rsp+48], xmm14
	movaps	xmm3, xmm11
	movss	DWORD PTR [rsp+40], xmm12
	movaps	xmm2, xmm11
	movaps	xmm1, xmm11
	movss	DWORD PTR [rsp+32], xmm12
	movaps	xmm0, xmm9
	call	?drawCube1@@YAXMMMMMMM@Z		; drawCube1

; 462  :     glPopMatrix();

	call	QWORD PTR __imp_glPopMatrix

; 463  : 
; 464  :     //wardrobe's 3rd drawer
; 465  :     glPushMatrix();

	call	QWORD PTR __imp_glPushMatrix

; 466  :     glTranslatef(0.36, 0.5, 4.05);

	movss	xmm1, DWORD PTR __real@3f000000
	movaps	xmm2, xmm6
	movaps	xmm0, xmm8
	call	QWORD PTR __imp_glTranslatef

; 467  :     glScalef(0.0001, 0.1, 0.4);

	movaps	xmm2, xmm9
	movaps	xmm1, xmm12
	movaps	xmm0, xmm7
	call	QWORD PTR __imp_glScalef

; 468  :     drawCube1(0.4, 0.2, 0.2, 0.2, 0.1, 0.1);

	movss	DWORD PTR [rsp+48], xmm14
	movaps	xmm3, xmm11
	movss	DWORD PTR [rsp+40], xmm12
	movaps	xmm2, xmm11
	movaps	xmm1, xmm11
	movss	DWORD PTR [rsp+32], xmm12
	movaps	xmm0, xmm9
	call	?drawCube1@@YAXMMMMMMM@Z		; drawCube1

; 469  :     glPopMatrix();

	call	QWORD PTR __imp_glPopMatrix

; 470  : 
; 471  :     //wardrobe's 4th drawer
; 472  :     glPushMatrix();

	call	QWORD PTR __imp_glPushMatrix

; 473  :     glTranslatef(0.36, 0.0, 4.05);

	movaps	xmm2, xmm6
	xorps	xmm1, xmm1
	movaps	xmm0, xmm8
	call	QWORD PTR __imp_glTranslatef

; 474  :     glScalef(0.0001, 0.1, 0.4);

	movaps	xmm2, xmm9
	movaps	xmm1, xmm12
	movaps	xmm0, xmm7
	call	QWORD PTR __imp_glScalef

; 475  :     drawCube1(0.4, 0.2, 0.2, 0.2, 0.1, 0.1);

	movss	DWORD PTR [rsp+48], xmm14
	movaps	xmm3, xmm11
	movss	DWORD PTR [rsp+40], xmm12
	movaps	xmm2, xmm11
	movaps	xmm1, xmm11
	movss	DWORD PTR [rsp+32], xmm12
	movaps	xmm0, xmm9
	call	?drawCube1@@YAXMMMMMMM@Z		; drawCube1

; 476  :     glPopMatrix();

	call	QWORD PTR __imp_glPopMatrix
	xorps	xmm2, xmm2

; 477  : 
; 478  :     //wardrobe's 1st drawer handle
; 479  :     glColor3f(0.3, 0.1, 0);

	movaps	xmm1, xmm12
	movaps	xmm0, xmm13
	call	QWORD PTR __imp_glColor3f

; 480  :     glPushMatrix();

	call	QWORD PTR __imp_glPushMatrix

; 481  :     glTranslatef(0.37, 1.5, 4.3);

	movss	xmm9, DWORD PTR __real@4089999a
	movaps	xmm1, xmm10
	movss	xmm8, DWORD PTR __real@3ebd70a4
	movaps	xmm2, xmm9
	movaps	xmm0, xmm8
	call	QWORD PTR __imp_glTranslatef

; 482  :     glScalef(0.01, 0.03, 0.2);

	movss	xmm7, DWORD PTR __real@3cf5c28f
	movaps	xmm2, xmm11
	movss	xmm6, DWORD PTR __real@3c23d70a
	movaps	xmm1, xmm7
	movaps	xmm0, xmm6
	call	QWORD PTR __imp_glScalef

; 483  :     drawCube1(0.6, 0.15, 0.0, 0.3, 0.1, 0);

	movss	xmm10, DWORD PTR __real@3f19999a
	xorps	xmm0, xmm0
	movss	DWORD PTR [rsp+48], xmm14
	movaps	xmm3, xmm13
	movss	DWORD PTR [rsp+40], xmm0
	xorps	xmm2, xmm2
	movaps	xmm0, xmm10
	movss	DWORD PTR [rsp+32], xmm12
	movaps	xmm1, xmm15
	call	?drawCube1@@YAXMMMMMMM@Z		; drawCube1

; 484  :     glPopMatrix();

	call	QWORD PTR __imp_glPopMatrix
	xorps	xmm2, xmm2

; 485  : 
; 486  :     //wardrobe's 2nd drawer handle
; 487  :     glColor3f(0.3, 0.1, 0);

	movaps	xmm1, xmm12
	movaps	xmm0, xmm13
	call	QWORD PTR __imp_glColor3f

; 488  :     glPushMatrix();

	call	QWORD PTR __imp_glPushMatrix

; 489  :     glTranslatef(0.37, 1.1, 4.3);

	movss	xmm1, DWORD PTR __real@3f8ccccd
	movaps	xmm2, xmm9
	movaps	xmm0, xmm8
	call	QWORD PTR __imp_glTranslatef

; 490  :     glScalef(0.01, 0.03, 0.2);

	movaps	xmm2, xmm11
	movaps	xmm1, xmm7
	movaps	xmm0, xmm6
	call	QWORD PTR __imp_glScalef
	xorps	xmm0, xmm0

; 491  :     drawCube1(0.6, 0.15, 0.0, 0.3, 0.1, 0);

	movss	DWORD PTR [rsp+48], xmm14
	movss	DWORD PTR [rsp+40], xmm0
	movaps	xmm3, xmm13
	movaps	xmm0, xmm10
	movss	DWORD PTR [rsp+32], xmm12
	xorps	xmm2, xmm2
	movaps	xmm1, xmm15
	call	?drawCube1@@YAXMMMMMMM@Z		; drawCube1

; 492  :     glPopMatrix();

	call	QWORD PTR __imp_glPopMatrix
	xorps	xmm2, xmm2

; 493  : 
; 494  :     //wardrobe's 3rd drawer handle
; 495  :     glColor3f(0.3, 0.1, 0);

	movaps	xmm1, xmm12
	movaps	xmm0, xmm13
	call	QWORD PTR __imp_glColor3f

; 496  :     glPushMatrix();

	call	QWORD PTR __imp_glPushMatrix

; 497  :     glTranslatef(0.37, 0.7, 4.3);

	movss	xmm1, DWORD PTR __real@3f333333
	movaps	xmm2, xmm9
	movaps	xmm0, xmm8
	call	QWORD PTR __imp_glTranslatef

; 498  :     glScalef(0.01, 0.03, 0.2);

	movaps	xmm2, xmm11
	movaps	xmm1, xmm7
	movaps	xmm0, xmm6
	call	QWORD PTR __imp_glScalef
	xorps	xmm0, xmm0

; 499  :     drawCube1(0.6, 0.15, 0.0, 0.3, 0.1, 0);

	movss	DWORD PTR [rsp+48], xmm14
	movss	DWORD PTR [rsp+40], xmm0
	movaps	xmm3, xmm13
	movaps	xmm0, xmm10
	movss	DWORD PTR [rsp+32], xmm12
	xorps	xmm2, xmm2
	movaps	xmm1, xmm15
	call	?drawCube1@@YAXMMMMMMM@Z		; drawCube1

; 500  :     glPopMatrix();

	call	QWORD PTR __imp_glPopMatrix
	xorps	xmm2, xmm2

; 501  : 
; 502  :     //wardrobe's 4th drawer handle
; 503  :     glColor3f(0.3, 0.1, 0);

	movaps	xmm1, xmm12
	movaps	xmm0, xmm13
	call	QWORD PTR __imp_glColor3f

; 504  :     glPushMatrix();

	call	QWORD PTR __imp_glPushMatrix

; 505  :     glTranslatef(0.37, 0.3, 4.3);

	movaps	xmm2, xmm9
	movaps	xmm1, xmm13
	movaps	xmm0, xmm8
	call	QWORD PTR __imp_glTranslatef

; 506  :     glScalef(0.01, 0.03, 0.2);

	movaps	xmm2, xmm11
	movaps	xmm1, xmm7
	movaps	xmm0, xmm6
	call	QWORD PTR __imp_glScalef
	xorps	xmm0, xmm0

; 507  :     drawCube1(0.6, 0.15, 0.0, 0.3, 0.1, 0);

	movss	DWORD PTR [rsp+48], xmm14
	movss	DWORD PTR [rsp+40], xmm0
	movaps	xmm3, xmm13
	movaps	xmm0, xmm10
	movss	DWORD PTR [rsp+32], xmm12
	xorps	xmm2, xmm2
	movaps	xmm1, xmm15
	call	?drawCube1@@YAXMMMMMMM@Z		; drawCube1

; 509  : 
; 510  : }

	movaps	xmm13, XMMWORD PTR [rsp+96]
	lea	r11, QWORD PTR [rsp+232]
	movaps	xmm6, XMMWORD PTR [r11-24]
	movaps	xmm7, XMMWORD PTR [r11-40]
	movaps	xmm8, XMMWORD PTR [r11-56]
	movaps	xmm9, XMMWORD PTR [r11-72]
	movaps	xmm10, XMMWORD PTR [r11-88]
	movaps	xmm11, XMMWORD PTR [r11-104]
	movaps	xmm12, XMMWORD PTR [r11-120]
	movaps	xmm14, XMMWORD PTR [rsp+80]
	movaps	xmm15, XMMWORD PTR [rsp+64]
	mov	rsp, r11

; 508  :     glPopMatrix();

	rex_jmp	QWORD PTR __imp_glPopMatrix
?wardrobe@@YAXXZ ENDP					; wardrobe
_TEXT	ENDS
; Function compile flags: /Ogtpy
; File E:\xxxDATA\¥Û»˝…œ\–Èƒ‚œ÷ µ\22120111 –‹œËœË OpenGL¥Û◊˜“µ\room\room\room.cpp
;	COMDAT ?lightBulb1@@YAXXZ
_TEXT	SEGMENT
high_shininess$ = 32
no_mat$ = 40
mat_diffuse$ = 56
mat_emission$ = 72
__$ArrayPad$ = 88
?lightBulb1@@YAXXZ PROC					; lightBulb1, COMDAT

; 515  : {

$LN7:
	sub	rsp, 104				; 00000068H
	mov	rax, QWORD PTR __security_cookie
	xor	rax, rsp
	mov	QWORD PTR __$ArrayPad$[rsp], rax

; 516  :     GLfloat no_mat[] = { 0.0, 0.0, 0.0, 1.0 };

	movaps	xmm0, XMMWORD PTR __xmm@3f800000000000000000000000000000

; 517  :     GLfloat mat_ambient[] = { 0.7, 0.7, 0.7, 1.0 };
; 518  :     GLfloat mat_ambient_color[] = { 0.8, 0.8, 0.2, 1.0 };
; 519  :     GLfloat mat_diffuse[] = { 1.000, 0.843, 0.000, 1.0 };

	movaps	xmm1, XMMWORD PTR __xmm@3f800000000000003f57ced93f800000
	movups	XMMWORD PTR no_mat$[rsp], xmm0

; 520  :     GLfloat mat_specular[] = { 1.0, 1.0, 1.0, 1.0 };
; 521  :     GLfloat high_shininess[] = { 100.0 };

	movss	xmm0, DWORD PTR __real@42c80000
	movups	XMMWORD PTR mat_diffuse$[rsp], xmm1

; 522  :     GLfloat mat_emission[] = { 1.000, 1,1, 0.0 };

	movaps	xmm1, XMMWORD PTR __xmm@000000003f8000003f8000003f800000
	movss	DWORD PTR high_shininess$[rsp], xmm0
	movups	XMMWORD PTR mat_emission$[rsp], xmm1

; 523  : 
; 524  :     glPushMatrix();

	call	QWORD PTR __imp_glPushMatrix

; 525  :     glTranslatef(5, 5, 8);

	movss	xmm0, DWORD PTR __real@40a00000
	movss	xmm2, DWORD PTR __real@41000000
	movaps	xmm1, xmm0
	call	QWORD PTR __imp_glTranslatef

; 526  :     glScalef(0.2, 0.2, 0.2);

	movss	xmm0, DWORD PTR __real@3e4ccccd
	movaps	xmm2, xmm0
	movaps	xmm1, xmm0
	call	QWORD PTR __imp_glScalef

; 527  : 
; 528  :     //ËÆæÁΩÆÊùêÊñôÂ±ûÊÄß
; 529  :     glMaterialfv(GL_FRONT, GL_AMBIENT, no_mat); // ÊùêË¥®ÁöÑÁéØÂ¢ÉÈ¢úËâ≤

	lea	r8, QWORD PTR no_mat$[rsp]
	mov	edx, 4608				; 00001200H
	mov	ecx, 1028				; 00000404H
	call	QWORD PTR __imp_glMaterialfv

; 530  :     glMaterialfv(GL_FRONT, GL_DIFFUSE, mat_diffuse);// ÊùêË¥®ÁöÑÊï£Â∞ÑÈ¢úËâ≤

	lea	r8, QWORD PTR mat_diffuse$[rsp]
	mov	edx, 4609				; 00001201H
	mov	ecx, 1028				; 00000404H
	call	QWORD PTR __imp_glMaterialfv

; 531  :     glMaterialfv(GL_FRONT, GL_SPECULAR, no_mat); // ÊùêË¥®ÁöÑÈïúÈù¢ÂèçÂ∞ÑÈ¢úËâ≤

	lea	r8, QWORD PTR no_mat$[rsp]
	mov	edx, 4610				; 00001202H
	mov	ecx, 1028				; 00000404H
	call	QWORD PTR __imp_glMaterialfv

; 532  :     glMaterialfv(GL_FRONT, GL_SHININESS, high_shininess);// ÊùêË¥®ÁöÑÈïúÈù¢ÂèçÂ∞ÑÈ¢úËâ≤

	lea	r8, QWORD PTR high_shininess$[rsp]
	mov	edx, 5633				; 00001601H
	mov	ecx, 1028				; 00000404H
	call	QWORD PTR __imp_glMaterialfv

; 533  : 
; 534  :     //Âà§Êñ≠ÂºÄÂÖ≥ÊòØÂê¶ÊâìÂºÄ
; 535  :     if (switchOne == true) {

	cmp	BYTE PTR ?switchOne@@3EA, 1		; switchOne

; 536  :         glMaterialfv(GL_FRONT, GL_EMISSION, mat_emission);

	lea	r8, QWORD PTR mat_emission$[rsp]
	mov	edx, 5632				; 00001600H
	mov	ecx, 1028				; 00000404H
	je	SHORT $LN5@lightBulb1

; 537  :     }
; 538  :     else {
; 539  :         glMaterialfv(GL_FRONT, GL_EMISSION, no_mat);

	lea	r8, QWORD PTR no_mat$[rsp]
$LN5@lightBulb1:

; 540  :     }
; 541  : 
; 542  :     glutSolidSphere(1.0, 16, 16);

	call	QWORD PTR __imp_glMaterialfv
	movsd	xmm0, QWORD PTR __real@3ff0000000000000
	mov	edx, 16
	mov	r8d, edx
	call	QWORD PTR __imp_glutSolidSphere

; 543  :     glPopMatrix();

	call	QWORD PTR __imp_glPopMatrix

; 544  : }

	mov	rcx, QWORD PTR __$ArrayPad$[rsp]
	xor	rcx, rsp
	call	__security_check_cookie
	add	rsp, 104				; 00000068H
	ret	0
?lightBulb1@@YAXXZ ENDP					; lightBulb1
_TEXT	ENDS
; Function compile flags: /Ogtpy
; File E:\xxxDATA\¥Û»˝…œ\–Èƒ‚œ÷ µ\22120111 –‹œËœË OpenGL¥Û◊˜“µ\room\room\room.cpp
;	COMDAT ?lightOne@@YAXXZ
_TEXT	SEGMENT
no_light$ = 32
light_ambient$ = 48
light_diffuse$ = 64
light_specular$ = 80
light_position$ = 96
__$ArrayPad$ = 112
?lightOne@@YAXXZ PROC					; lightOne, COMDAT

; 551  : {

$LN29:
	sub	rsp, 136				; 00000088H
	mov	rax, QWORD PTR __security_cookie
	xor	rax, rsp
	mov	QWORD PTR __$ArrayPad$[rsp], rax

; 552  :     glPushMatrix();

	call	QWORD PTR __imp_glPushMatrix

; 553  :     GLfloat no_light[] = { 0.0, 0.0, 0.0, 1.0 };
; 554  :     GLfloat light_ambient[] = { 0.5, 0.5, 0.5, 1.0 };
; 555  :     GLfloat light_diffuse[] = { 1.0, 1.0, 1.0, 1.0 };
; 556  :     GLfloat light_specular[] = { 1.0, 1.0, 1.0, 1.0 };
; 557  :     GLfloat light_position[] = { 5.0, 5.0, 8.0, 1.0 }; 
; 558  : 
; 559  :     //glEnable( GL_LIGHT0);
; 560  : 
; 561  :     if (amb1 == true) { glLightfv(GL_LIGHT0, GL_AMBIENT, light_ambient); }

	cmp	BYTE PTR ?amb1@@3EA, 1			; amb1
	lea	r8, QWORD PTR light_ambient$[rsp]
	movaps	xmm0, XMMWORD PTR __xmm@3f800000000000000000000000000000
	mov	edx, 4608				; 00001200H
	movaps	xmm1, XMMWORD PTR __xmm@3f8000003f0000003f0000003f000000
	mov	ecx, 16384				; 00004000H
	movups	XMMWORD PTR no_light$[rsp], xmm0
	movaps	xmm0, XMMWORD PTR __xmm@3f8000003f8000003f8000003f800000
	movups	XMMWORD PTR light_ambient$[rsp], xmm1
	movups	XMMWORD PTR light_diffuse$[rsp], xmm0
	movaps	xmm1, xmm0
	movups	XMMWORD PTR light_specular$[rsp], xmm0
	movaps	xmm0, XMMWORD PTR __xmm@3f8000004100000040a0000040a00000
	movups	XMMWORD PTR light_position$[rsp], xmm0
	je	SHORT $LN25@lightOne

; 562  :     else { glLightfv(GL_LIGHT0, GL_AMBIENT, no_light); }

	lea	r8, QWORD PTR no_light$[rsp]
$LN25@lightOne:

; 563  : 
; 564  :     if (diff1 == true) { glLightfv(GL_LIGHT0, GL_DIFFUSE, light_diffuse); }

	call	QWORD PTR __imp_glLightfv
	cmp	BYTE PTR ?diff1@@3EA, 1			; diff1
	lea	r8, QWORD PTR light_diffuse$[rsp]
	mov	edx, 4609				; 00001201H
	mov	ecx, 16384				; 00004000H
	je	SHORT $LN26@lightOne

; 565  :     else { glLightfv(GL_LIGHT0, GL_DIFFUSE, no_light); }

	lea	r8, QWORD PTR no_light$[rsp]
$LN26@lightOne:

; 566  : 
; 567  :     if (spec1 == true) { glLightfv(GL_LIGHT0, GL_SPECULAR, light_specular); }

	call	QWORD PTR __imp_glLightfv
	cmp	BYTE PTR ?spec1@@3EA, 1			; spec1
	lea	r8, QWORD PTR light_specular$[rsp]
	mov	edx, 4610				; 00001202H
	mov	ecx, 16384				; 00004000H
	je	SHORT $LN27@lightOne

; 568  :     else { glLightfv(GL_LIGHT0, GL_SPECULAR, no_light); }

	lea	r8, QWORD PTR no_light$[rsp]
$LN27@lightOne:

; 569  : 
; 570  :     glLightfv(GL_LIGHT0, GL_POSITION, light_position);

	call	QWORD PTR __imp_glLightfv
	lea	r8, QWORD PTR light_position$[rsp]
	mov	edx, 4611				; 00001203H
	mov	ecx, 16384				; 00004000H
	call	QWORD PTR __imp_glLightfv

; 571  :     glPopMatrix();

	call	QWORD PTR __imp_glPopMatrix

; 572  : }

	mov	rcx, QWORD PTR __$ArrayPad$[rsp]
	xor	rcx, rsp
	call	__security_check_cookie
	add	rsp, 136				; 00000088H
	ret	0
?lightOne@@YAXXZ ENDP					; lightOne
_TEXT	ENDS
; Function compile flags: /Ogtpy
; File E:\xxxDATA\¥Û»˝…œ\–Èƒ‚œ÷ µ\22120111 –‹œËœË OpenGL¥Û◊˜“µ\room\room\room.cpp
;	COMDAT ?lampLight@@YAXXZ
_TEXT	SEGMENT
spot_direction$ = 32
no_light$ = 48
light_ambient$ = 64
light_diffuse$ = 80
light_specular$ = 96
light_position$ = 112
__$ArrayPad$ = 128
?lampLight@@YAXXZ PROC					; lampLight, COMDAT

; 575  : {

$LN29:
	sub	rsp, 152				; 00000098H
	mov	rax, QWORD PTR __security_cookie
	xor	rax, rsp
	mov	QWORD PTR __$ArrayPad$[rsp], rax

; 576  :     glPushMatrix();

	call	QWORD PTR __imp_glPushMatrix

; 577  :     GLfloat no_light[] = { 0.0, 0.0, 0.0, 1.0 };
; 578  :     GLfloat light_ambient[] = { 0.5, 0.5, 0.5, 1.0 };
; 579  :     GLfloat light_diffuse[] = { 1.0, 1.0, 1.0, 1.0 };
; 580  :     GLfloat light_specular[] = { 1.0, 1.0, 1.0, 1.0 };
; 581  :     GLfloat light_position[] = { 0.7, 1.5, 9.0, 1.0 }; 
; 582  : 
; 583  :     //glEnable( GL_LIGHT2);
; 584  : 
; 585  :     if (amb2 == true) { glLightfv(GL_LIGHT2, GL_AMBIENT, light_ambient); }

	cmp	BYTE PTR ?amb2@@3EA, 1			; amb2
	lea	r8, QWORD PTR light_ambient$[rsp]
	movaps	xmm0, XMMWORD PTR __xmm@3f800000000000000000000000000000
	mov	edx, 4608				; 00001200H
	movaps	xmm1, XMMWORD PTR __xmm@3f8000003f0000003f0000003f000000
	mov	ecx, 16386				; 00004002H
	movups	XMMWORD PTR no_light$[rsp], xmm0
	movaps	xmm0, XMMWORD PTR __xmm@3f8000003f8000003f8000003f800000
	movups	XMMWORD PTR light_ambient$[rsp], xmm1
	movups	XMMWORD PTR light_diffuse$[rsp], xmm0
	movaps	xmm1, xmm0
	movups	XMMWORD PTR light_specular$[rsp], xmm0
	movaps	xmm0, XMMWORD PTR __xmm@3f800000411000003fc000003f333333
	movups	XMMWORD PTR light_position$[rsp], xmm0
	je	SHORT $LN25@lampLight

; 586  :     else { glLightfv(GL_LIGHT2, GL_AMBIENT, no_light); }

	lea	r8, QWORD PTR no_light$[rsp]
$LN25@lampLight:

; 587  : 
; 588  :     if (diff2 == true) { glLightfv(GL_LIGHT2, GL_DIFFUSE, light_diffuse); }

	call	QWORD PTR __imp_glLightfv
	cmp	BYTE PTR ?diff2@@3EA, 1			; diff2
	lea	r8, QWORD PTR light_diffuse$[rsp]
	mov	edx, 4609				; 00001201H
	mov	ecx, 16386				; 00004002H
	je	SHORT $LN26@lampLight

; 589  :     else { glLightfv(GL_LIGHT2, GL_DIFFUSE, no_light); }

	lea	r8, QWORD PTR no_light$[rsp]
$LN26@lampLight:

; 590  : 
; 591  :     if (spec2 == true) { glLightfv(GL_LIGHT2, GL_SPECULAR, light_specular); }

	call	QWORD PTR __imp_glLightfv
	cmp	BYTE PTR ?spec2@@3EA, 1			; spec2
	lea	r8, QWORD PTR light_specular$[rsp]
	mov	edx, 4610				; 00001202H
	mov	ecx, 16386				; 00004002H
	je	SHORT $LN27@lampLight

; 592  :     else { glLightfv(GL_LIGHT2, GL_SPECULAR, no_light); }

	lea	r8, QWORD PTR no_light$[rsp]
$LN27@lampLight:

; 593  : 
; 594  :     glLightfv(GL_LIGHT2, GL_POSITION, light_position);

	call	QWORD PTR __imp_glLightfv
	lea	r8, QWORD PTR light_position$[rsp]
	mov	edx, 4611				; 00001203H
	mov	ecx, 16386				; 00004002H
	call	QWORD PTR __imp_glLightfv

; 595  :     GLfloat spot_direction[] = { 0.3, -1, -0.8 };

	movss	xmm0, DWORD PTR __real@3e99999a

; 596  :     glLightfv(GL_LIGHT2, GL_SPOT_DIRECTION, spot_direction);

	lea	r8, QWORD PTR spot_direction$[rsp]
	movss	xmm1, DWORD PTR __real@bf800000
	mov	edx, 4612				; 00001204H
	movss	DWORD PTR spot_direction$[rsp], xmm0
	mov	ecx, 16386				; 00004002H
	movss	xmm0, DWORD PTR __real@bf4ccccd
	movss	DWORD PTR spot_direction$[rsp+8], xmm0
	movss	DWORD PTR spot_direction$[rsp+4], xmm1
	call	QWORD PTR __imp_glLightfv

; 597  :     glLightf(GL_LIGHT2, GL_SPOT_CUTOFF, 35.0);

	movss	xmm2, DWORD PTR __real@420c0000
	mov	edx, 4614				; 00001206H
	mov	ecx, 16386				; 00004002H
	call	QWORD PTR __imp_glLightf

; 598  :     glPopMatrix();

	call	QWORD PTR __imp_glPopMatrix

; 599  : }

	mov	rcx, QWORD PTR __$ArrayPad$[rsp]
	xor	rcx, rsp
	call	__security_check_cookie
	add	rsp, 152				; 00000098H
	ret	0
?lampLight@@YAXXZ ENDP					; lampLight
_TEXT	ENDS
; Function compile flags: /Ogtpy
; File E:\xxxDATA\¥Û»˝…œ\–Èƒ‚œ÷ µ\22120111 –‹œËœË OpenGL¥Û◊˜“µ\room\room\room.cpp
;	COMDAT ?cupboard@@YAXXZ
_TEXT	SEGMENT
?cupboard@@YAXXZ PROC					; cupboard, COMDAT

; 601  : {

$LN4:
	mov	rax, rsp
	sub	rsp, 232				; 000000e8H
	movaps	XMMWORD PTR [rax-24], xmm6
	movaps	XMMWORD PTR [rax-40], xmm7
	movaps	XMMWORD PTR [rax-56], xmm8
	movaps	XMMWORD PTR [rax-72], xmm9
	movaps	XMMWORD PTR [rax-88], xmm10
	movaps	XMMWORD PTR [rax-104], xmm11
	movaps	XMMWORD PTR [rax-120], xmm12
	movaps	XMMWORD PTR [rsp+96], xmm13
	movaps	XMMWORD PTR [rsp+80], xmm14
	movaps	XMMWORD PTR [rsp+64], xmm15

; 602  :     //cupboard body
; 603  :     glPushMatrix();

	call	QWORD PTR __imp_glPushMatrix

; 604  :     glTranslatef(4, 0, 4.4);

	movss	xmm8, DWORD PTR __real@40800000
	xorps	xmm1, xmm1
	movss	xmm2, DWORD PTR __real@408ccccd
	movaps	xmm0, xmm8
	xorps	xmm9, xmm9
	call	QWORD PTR __imp_glTranslatef

; 605  :     glScalef(0.5, 1, 0.5);

	movss	xmm12, DWORD PTR __real@3f000000
	movss	xmm7, DWORD PTR __real@3f800000
	movaps	xmm2, xmm12
	movaps	xmm1, xmm7
	movaps	xmm0, xmm12
	call	QWORD PTR __imp_glScalef

; 606  :     drawCube1(0.32, 0.16, 0.00, 0.16, 0.08, 0.00);

	movss	xmm0, DWORD PTR __real@3da3d70a
	xorps	xmm2, xmm2
	movss	xmm10, DWORD PTR __real@42480000
	movss	DWORD PTR [rsp+48], xmm10
	movss	DWORD PTR [rsp+40], xmm9
	movss	DWORD PTR [rsp+32], xmm0
	movss	xmm0, DWORD PTR __real@3e23d70a
	movaps	xmm3, xmm0
	movaps	xmm1, xmm0
	movss	xmm0, DWORD PTR __real@3ea3d70a
	call	?drawCube1@@YAXMMMMMMM@Z		; drawCube1

; 607  :     glPopMatrix();

	call	QWORD PTR __imp_glPopMatrix

; 608  : 
; 609  :     //cupboard's last stripline
; 610  :     glPushMatrix();

	call	QWORD PTR __imp_glPushMatrix

; 611  :     glTranslatef(4, 0, 5.9);

	movss	xmm14, DWORD PTR __real@40bccccd
	xorps	xmm1, xmm1
	movaps	xmm2, xmm14
	movaps	xmm0, xmm8
	call	QWORD PTR __imp_glTranslatef

; 612  :     glScalef(0.5, 0.01, 0.0001);

	movss	xmm6, DWORD PTR __real@38d1b717
	movaps	xmm0, xmm12
	movss	xmm13, DWORD PTR __real@3c23d70a
	movaps	xmm2, xmm6
	movaps	xmm1, xmm13
	call	QWORD PTR __imp_glScalef

; 613  :     drawCube1(0.5, 0.2, 0.1, 0.25, 0.1, 0.05);

	movss	xmm2, DWORD PTR __real@3dcccccd
	movaps	xmm0, xmm12
	movss	xmm15, DWORD PTR __real@3d4ccccd
	movss	xmm11, DWORD PTR __real@3e4ccccd
	movss	DWORD PTR [rsp+48], xmm10
	movaps	xmm1, xmm11
	movss	xmm10, DWORD PTR __real@3e800000
	movss	DWORD PTR [rsp+40], xmm15
	movaps	xmm3, xmm10
	movss	DWORD PTR [rsp+32], xmm2
	call	?drawCube1@@YAXMMMMMMM@Z		; drawCube1

; 614  :     glPopMatrix();

	call	QWORD PTR __imp_glPopMatrix

; 615  : 
; 616  :     //cupboard's lst horizontal stripline
; 617  :     glPushMatrix();

	call	QWORD PTR __imp_glPushMatrix

; 618  :     glTranslatef(5.5, 0, 5.9);

	movss	xmm0, DWORD PTR __real@40b00000
	movaps	xmm2, xmm14
	xorps	xmm1, xmm1
	call	QWORD PTR __imp_glTranslatef

; 619  :     glScalef(0.01, 1, 0.0001);

	movaps	xmm2, xmm6
	movaps	xmm1, xmm7
	movaps	xmm0, xmm13
	call	QWORD PTR __imp_glScalef

; 620  :     drawCube1(0.5, 0.2, 0.1, 0.25, 0.1, 0.05);

	movss	xmm0, DWORD PTR __real@42480000
	movaps	xmm3, xmm10
	movss	DWORD PTR [rsp+48], xmm0
	movaps	xmm1, xmm11
	movss	xmm0, DWORD PTR __real@3dcccccd
	movss	DWORD PTR [rsp+40], xmm15
	movaps	xmm2, xmm0
	movss	DWORD PTR [rsp+32], xmm0
	movaps	xmm0, xmm12
	call	?drawCube1@@YAXMMMMMMM@Z		; drawCube1

; 621  :     glPopMatrix();

	call	QWORD PTR __imp_glPopMatrix

; 622  : 
; 623  :     //cupboard's right side horizontal stripline
; 624  :     glPushMatrix();

	call	QWORD PTR __imp_glPushMatrix

; 625  :     glTranslatef(4.75, 1, 5.9);

	movaps	xmm2, xmm14
	movss	xmm0, DWORD PTR __real@40980000
	movaps	xmm1, xmm7
	call	QWORD PTR __imp_glTranslatef

; 626  :     glScalef(0.01, 0.67, 0.0001);

	movss	xmm1, DWORD PTR __real@3f2b851f
	movaps	xmm2, xmm6
	movaps	xmm0, xmm13
	call	QWORD PTR __imp_glScalef

; 627  :     drawCube1(0.5, 0.2, 0.1, 0.25, 0.1, 0.05);

	movss	xmm0, DWORD PTR __real@42480000
	movaps	xmm3, xmm10
	movss	DWORD PTR [rsp+48], xmm0
	movaps	xmm1, xmm11
	movss	xmm0, DWORD PTR __real@3dcccccd
	movss	DWORD PTR [rsp+40], xmm15
	movaps	xmm2, xmm0
	movss	DWORD PTR [rsp+32], xmm0
	movaps	xmm0, xmm12
	call	?drawCube1@@YAXMMMMMMM@Z		; drawCube1

; 628  :     glPopMatrix();

	call	QWORD PTR __imp_glPopMatrix

; 629  : 
; 630  :     //cupboard's left side horizontal stripline
; 631  :     glPushMatrix();

	call	QWORD PTR __imp_glPushMatrix

; 632  :     glTranslatef(4, 0, 5.9);

	movaps	xmm2, xmm14
	xorps	xmm1, xmm1
	movaps	xmm0, xmm8
	call	QWORD PTR __imp_glTranslatef

; 633  :     glScalef(0.01, 1, 0.0001);

	movaps	xmm2, xmm6
	movaps	xmm1, xmm7
	movaps	xmm0, xmm13
	call	QWORD PTR __imp_glScalef

; 634  :     drawCube1(0.5, 0.2, 0.1, 0.25, 0.1, 0.05);

	movss	xmm0, DWORD PTR __real@42480000
	movaps	xmm3, xmm10
	movss	xmm9, DWORD PTR __real@3dcccccd
	movaps	xmm1, xmm11
	movss	DWORD PTR [rsp+48], xmm0
	movaps	xmm2, xmm9
	movss	DWORD PTR [rsp+40], xmm15
	movaps	xmm0, xmm12
	movss	DWORD PTR [rsp+32], xmm9
	call	?drawCube1@@YAXMMMMMMM@Z		; drawCube1

; 635  :     glPopMatrix();

	call	QWORD PTR __imp_glPopMatrix

; 636  : 
; 637  :     //cupboard's handle right
; 638  :     glPushMatrix();

	call	QWORD PTR __imp_glPushMatrix

; 639  :     glTranslatef(5, 1.4, 5.9);

	movss	xmm6, DWORD PTR __real@3fb33333
	movaps	xmm2, xmm14
	movss	xmm0, DWORD PTR __real@40a00000
	movaps	xmm1, xmm6
	call	QWORD PTR __imp_glTranslatef

; 640  :     glScalef(0.02, 0.18, 0.01);

	movss	xmm7, DWORD PTR __real@3e3851ec
	movaps	xmm2, xmm13
	movss	xmm8, DWORD PTR __real@3ca3d70a
	movaps	xmm1, xmm7
	movaps	xmm0, xmm8
	call	QWORD PTR __imp_glScalef

; 641  :     drawCube1(0.5, 0.2, 0.1, 0.25, 0.1, 0.05);

	movss	xmm0, DWORD PTR __real@42480000
	movaps	xmm3, xmm10
	movss	DWORD PTR [rsp+48], xmm0
	movaps	xmm2, xmm9
	movss	DWORD PTR [rsp+40], xmm15
	movaps	xmm0, xmm12
	movaps	xmm1, xmm11
	movss	DWORD PTR [rsp+32], xmm9
	call	?drawCube1@@YAXMMMMMMM@Z		; drawCube1

; 642  :     glPopMatrix();

	call	QWORD PTR __imp_glPopMatrix

; 643  : 
; 644  :     //cupboard's handle left
; 645  :     glPushMatrix();

	call	QWORD PTR __imp_glPushMatrix

; 646  :     glTranslatef(4.5, 1.4, 5.9);

	movaps	xmm1, xmm6
	movaps	xmm2, xmm14
	movss	xmm6, DWORD PTR __real@40900000
	movaps	xmm0, xmm6
	call	QWORD PTR __imp_glTranslatef

; 647  :     glScalef(0.02, 0.18, 0.01);

	movaps	xmm2, xmm13
	movaps	xmm1, xmm7
	movaps	xmm0, xmm8
	call	QWORD PTR __imp_glScalef

; 648  :     drawCube1(0.5, 0.2, 0.1, 0.25, 0.1, 0.05);

	movss	xmm0, DWORD PTR __real@42480000
	movaps	xmm3, xmm10
	movss	DWORD PTR [rsp+48], xmm0
	movaps	xmm2, xmm9
	movss	DWORD PTR [rsp+40], xmm15
	movaps	xmm0, xmm12
	movaps	xmm1, xmm11
	movss	DWORD PTR [rsp+32], xmm9
	call	?drawCube1@@YAXMMMMMMM@Z		; drawCube1

; 649  :     glPopMatrix();

	call	QWORD PTR __imp_glPopMatrix

; 650  : 
; 651  :     //cupboard's drawer's 1st handle
; 652  :     glPushMatrix();

	call	QWORD PTR __imp_glPushMatrix

; 653  :     glTranslatef(4.5, 0.7, 5.9);

	movss	xmm1, DWORD PTR __real@3f333333
	movaps	xmm2, xmm14
	movaps	xmm0, xmm6
	call	QWORD PTR __imp_glTranslatef

; 654  :     glScalef(0.16, 0.02, 0.01);

	movss	xmm7, DWORD PTR __real@3e23d70a
	movaps	xmm2, xmm13
	movaps	xmm0, xmm7
	movaps	xmm1, xmm8
	call	QWORD PTR __imp_glScalef

; 655  :     drawCube1(0.2, 0.1, 0.1, 0.1, 0.05, 0.05);

	movss	xmm12, DWORD PTR __real@42480000
	movaps	xmm3, xmm9
	movss	DWORD PTR [rsp+48], xmm12
	movaps	xmm2, xmm9
	movss	DWORD PTR [rsp+40], xmm15
	movaps	xmm1, xmm9
	movaps	xmm0, xmm11
	movss	DWORD PTR [rsp+32], xmm15
	call	?drawCube1@@YAXMMMMMMM@Z		; drawCube1

; 656  :     glPopMatrix();

	call	QWORD PTR __imp_glPopMatrix

; 657  : 
; 658  :     //cupboard's drawer's 2nd handle
; 659  :     glPushMatrix();

	call	QWORD PTR __imp_glPushMatrix

; 660  :     glTranslatef(4.5, 0.25, 5.9);

	movaps	xmm2, xmm14
	movaps	xmm1, xmm10
	movaps	xmm0, xmm6
	call	QWORD PTR __imp_glTranslatef

; 661  :     glScalef(0.16, 0.02, 0.01);

	movaps	xmm2, xmm13
	movaps	xmm1, xmm8
	movaps	xmm0, xmm7
	call	QWORD PTR __imp_glScalef

; 662  :     drawCube1(0.2, 0.1, 0.1, 0.1, 0.05, 0.05);

	movss	DWORD PTR [rsp+48], xmm12
	movaps	xmm3, xmm9
	movss	DWORD PTR [rsp+40], xmm15
	movaps	xmm2, xmm9
	movaps	xmm1, xmm9
	movss	DWORD PTR [rsp+32], xmm15
	movaps	xmm0, xmm11
	call	?drawCube1@@YAXMMMMMMM@Z		; drawCube1

; 664  : }

	movaps	xmm13, XMMWORD PTR [rsp+96]
	lea	r11, QWORD PTR [rsp+232]
	movaps	xmm6, XMMWORD PTR [r11-24]
	movaps	xmm7, XMMWORD PTR [r11-40]
	movaps	xmm8, XMMWORD PTR [r11-56]
	movaps	xmm9, XMMWORD PTR [r11-72]
	movaps	xmm10, XMMWORD PTR [r11-88]
	movaps	xmm11, XMMWORD PTR [r11-104]
	movaps	xmm12, XMMWORD PTR [r11-120]
	movaps	xmm14, XMMWORD PTR [rsp+80]
	movaps	xmm15, XMMWORD PTR [rsp+64]
	mov	rsp, r11

; 663  :     glPopMatrix();

	rex_jmp	QWORD PTR __imp_glPopMatrix
?cupboard@@YAXXZ ENDP					; cupboard
_TEXT	ENDS
; Function compile flags: /Ogtpy
; File E:\xxxDATA\¥Û»˝…œ\–Èƒ‚œ÷ µ\22120111 –‹œËœË OpenGL¥Û◊˜“µ\room\room\room.cpp
;	COMDAT ?display@@YAXXZ
_TEXT	SEGMENT
high_shininess$1 = 80
mat_shininess$2 = 80
mat_shininess$3 = 80
no_mat$4 = 88
no_light$5 = 88
light_ambient$6 = 88
mat_emission$7 = 104
mat_diffuse$8 = 104
mat_diffuse$9 = 104
light_ambient$10 = 104
light_position$11 = 104
spot_direction$12 = 120
no_light$13 = 120
mat_specular$14 = 136
mat_specular$15 = 136
light_diffuse$16 = 136
light_specular$17 = 136
mat_diffuse$18 = 152
mat_ambient$19 = 152
no_mat$20 = 152
light_position$21 = 152
light_specular$22 = 168
light_diffuse$23 = 168
__$ArrayPad$ = 184
?display@@YAXXZ PROC					; display, COMDAT

; 669  : {

$LN97:
	mov	rax, rsp
	push	rbp
	lea	rbp, QWORD PTR [rax-104]
	sub	rsp, 352				; 00000160H
	movaps	XMMWORD PTR [rax-24], xmm6
	movaps	XMMWORD PTR [rax-40], xmm7
	movaps	XMMWORD PTR [rax-56], xmm8
	movaps	XMMWORD PTR [rax-72], xmm9
	movaps	XMMWORD PTR [rax-88], xmm10
	movaps	XMMWORD PTR [rax-104], xmm11
	movaps	XMMWORD PTR [rax-120], xmm12
	movaps	XMMWORD PTR [rax-136], xmm13
	movaps	XMMWORD PTR [rax-152], xmm14
	movaps	XMMWORD PTR [rax-168], xmm15
	mov	rax, QWORD PTR __security_cookie
	xor	rax, rsp
	mov	QWORD PTR __$ArrayPad$[rbp-256], rax

; 670  :     glClear(GL_COLOR_BUFFER_BIT | GL_DEPTH_BUFFER_BIT);

	mov	ecx, 16640				; 00004100H
	call	QWORD PTR __imp_glClear

; 671  : 
; 672  :     glMatrixMode(GL_PROJECTION);

	mov	ecx, 5889				; 00001701H
	call	QWORD PTR __imp_glMatrixMode

; 673  :     glLoadIdentity();

	call	QWORD PTR __imp_glLoadIdentity

; 674  :     gluPerspective(60, 1, 1, 100);

	movsd	xmm6, QWORD PTR __real@3ff0000000000000
	movsd	xmm3, QWORD PTR __real@4059000000000000
	movaps	xmm2, xmm6
	movsd	xmm0, QWORD PTR __real@404e000000000000
	movaps	xmm1, xmm6
	call	QWORD PTR __imp_gluPerspective

; 675  : 
; 676  :     glMatrixMode(GL_MODELVIEW);

	mov	ecx, 5888				; 00001700H
	call	QWORD PTR __imp_glMatrixMode

; 677  :     glLoadIdentity();

	call	QWORD PTR __imp_glLoadIdentity

; 678  :     gluLookAt(eyeX, eyeY, eyeZ, refX, refY, refZ, 0, 1, 0); 

	movsd	xmm1, QWORD PTR ?refY@@3NA		; refY
	xorps	xmm0, xmm0
	movsd	xmm3, QWORD PTR ?refX@@3NA		; refX
	movsd	xmm2, QWORD PTR ?eyeZ@@3NA		; eyeZ
	movsd	QWORD PTR [rsp+64], xmm0
	movsd	QWORD PTR [rsp+56], xmm6
	movsd	QWORD PTR [rsp+48], xmm0
	movsd	xmm0, QWORD PTR ?refZ@@3NA		; refZ
	movsd	QWORD PTR [rsp+40], xmm0
	movsd	xmm0, QWORD PTR ?eyeX@@3NA		; eyeX
	movsd	QWORD PTR [rsp+32], xmm1
	movsd	xmm1, QWORD PTR ?eyeY@@3NA		; eyeY
	call	QWORD PTR __imp_gluLookAt

; 679  : 
; 680  :     glEnable(GL_LIGHTING);

	mov	ecx, 2896				; 00000b50H
	call	QWORD PTR __imp_glEnable

; 552  :     glPushMatrix();

	call	QWORD PTR __imp_glPushMatrix

; 553  :     GLfloat no_light[] = { 0.0, 0.0, 0.0, 1.0 };
; 554  :     GLfloat light_ambient[] = { 0.5, 0.5, 0.5, 1.0 };
; 555  :     GLfloat light_diffuse[] = { 1.0, 1.0, 1.0, 1.0 };
; 556  :     GLfloat light_specular[] = { 1.0, 1.0, 1.0, 1.0 };
; 557  :     GLfloat light_position[] = { 5.0, 5.0, 8.0, 1.0 }; 
; 558  : 
; 559  :     //glEnable( GL_LIGHT0);
; 560  : 
; 561  :     if (amb1 == true) { glLightfv(GL_LIGHT0, GL_AMBIENT, light_ambient); }

	cmp	BYTE PTR ?amb1@@3EA, 1			; amb1
	lea	r8, QWORD PTR light_ambient$6[rsp]
	movaps	xmm0, XMMWORD PTR __xmm@3f800000000000000000000000000000
	mov	edx, 4608				; 00001200H
	movaps	xmm1, XMMWORD PTR __xmm@3f8000003f0000003f0000003f000000
	mov	ecx, 16384				; 00004000H
	movups	XMMWORD PTR no_light$13[rsp], xmm0
	movaps	xmm0, XMMWORD PTR __xmm@3f8000003f8000003f8000003f800000
	movups	XMMWORD PTR light_ambient$6[rsp], xmm1
	movups	XMMWORD PTR light_diffuse$23[rbp-256], xmm0
	movaps	xmm1, xmm0
	movups	XMMWORD PTR light_specular$17[rbp-256], xmm0
	movaps	xmm0, XMMWORD PTR __xmm@3f8000004100000040a0000040a00000
	movups	XMMWORD PTR light_position$11[rsp], xmm0
	je	SHORT $LN89@display

; 562  :     else { glLightfv(GL_LIGHT0, GL_AMBIENT, no_light); }

	lea	r8, QWORD PTR no_light$13[rsp]
$LN89@display:

; 563  : 
; 564  :     if (diff1 == true) { glLightfv(GL_LIGHT0, GL_DIFFUSE, light_diffuse); }

	call	QWORD PTR __imp_glLightfv
	cmp	BYTE PTR ?diff1@@3EA, 1			; diff1
	lea	r8, QWORD PTR light_diffuse$23[rbp-256]
	mov	edx, 4609				; 00001201H
	mov	ecx, 16384				; 00004000H
	je	SHORT $LN90@display

; 565  :     else { glLightfv(GL_LIGHT0, GL_DIFFUSE, no_light); }

	lea	r8, QWORD PTR no_light$13[rsp]
$LN90@display:

; 566  : 
; 567  :     if (spec1 == true) { glLightfv(GL_LIGHT0, GL_SPECULAR, light_specular); }

	call	QWORD PTR __imp_glLightfv
	cmp	BYTE PTR ?spec1@@3EA, 1			; spec1
	lea	r8, QWORD PTR light_specular$17[rbp-256]
	mov	edx, 4610				; 00001202H
	mov	ecx, 16384				; 00004000H
	je	SHORT $LN91@display

; 568  :     else { glLightfv(GL_LIGHT0, GL_SPECULAR, no_light); }

	lea	r8, QWORD PTR no_light$13[rsp]
$LN91@display:

; 569  : 
; 570  :     glLightfv(GL_LIGHT0, GL_POSITION, light_position);

	call	QWORD PTR __imp_glLightfv
	lea	r8, QWORD PTR light_position$11[rsp]
	mov	edx, 4611				; 00001203H
	mov	ecx, 16384				; 00004000H
	call	QWORD PTR __imp_glLightfv

; 571  :     glPopMatrix();

	call	QWORD PTR __imp_glPopMatrix

; 576  :     glPushMatrix();

	call	QWORD PTR __imp_glPushMatrix

; 577  :     GLfloat no_light[] = { 0.0, 0.0, 0.0, 1.0 };
; 578  :     GLfloat light_ambient[] = { 0.5, 0.5, 0.5, 1.0 };
; 579  :     GLfloat light_diffuse[] = { 1.0, 1.0, 1.0, 1.0 };
; 580  :     GLfloat light_specular[] = { 1.0, 1.0, 1.0, 1.0 };
; 581  :     GLfloat light_position[] = { 0.7, 1.5, 9.0, 1.0 }; 
; 582  : 
; 583  :     //glEnable( GL_LIGHT2);
; 584  : 
; 585  :     if (amb2 == true) { glLightfv(GL_LIGHT2, GL_AMBIENT, light_ambient); }

	cmp	BYTE PTR ?amb2@@3EA, 1			; amb2
	lea	r8, QWORD PTR light_ambient$10[rsp]
	movaps	xmm0, XMMWORD PTR __xmm@3f800000000000000000000000000000
	mov	edx, 4608				; 00001200H
	movaps	xmm1, XMMWORD PTR __xmm@3f8000003f0000003f0000003f000000
	mov	ecx, 16386				; 00004002H
	movups	XMMWORD PTR no_light$5[rsp], xmm0
	movaps	xmm0, XMMWORD PTR __xmm@3f8000003f8000003f8000003f800000
	movups	XMMWORD PTR light_ambient$10[rsp], xmm1
	movups	XMMWORD PTR light_diffuse$16[rbp-256], xmm0
	movaps	xmm1, xmm0
	movups	XMMWORD PTR light_specular$22[rbp-256], xmm0
	movaps	xmm0, XMMWORD PTR __xmm@3f800000411000003fc000003f333333
	movups	XMMWORD PTR light_position$21[rbp-256], xmm0
	je	SHORT $LN92@display

; 586  :     else { glLightfv(GL_LIGHT2, GL_AMBIENT, no_light); }

	lea	r8, QWORD PTR no_light$5[rsp]
$LN92@display:

; 587  : 
; 588  :     if (diff2 == true) { glLightfv(GL_LIGHT2, GL_DIFFUSE, light_diffuse); }

	call	QWORD PTR __imp_glLightfv
	cmp	BYTE PTR ?diff2@@3EA, 1			; diff2
	lea	r8, QWORD PTR light_diffuse$16[rbp-256]
	mov	edx, 4609				; 00001201H
	mov	ecx, 16386				; 00004002H
	je	SHORT $LN93@display

; 589  :     else { glLightfv(GL_LIGHT2, GL_DIFFUSE, no_light); }

	lea	r8, QWORD PTR no_light$5[rsp]
$LN93@display:

; 590  : 
; 591  :     if (spec2 == true) { glLightfv(GL_LIGHT2, GL_SPECULAR, light_specular); }

	call	QWORD PTR __imp_glLightfv
	cmp	BYTE PTR ?spec2@@3EA, 1			; spec2
	lea	r8, QWORD PTR light_specular$22[rbp-256]
	mov	edx, 4610				; 00001202H
	mov	ecx, 16386				; 00004002H
	je	SHORT $LN94@display

; 592  :     else { glLightfv(GL_LIGHT2, GL_SPECULAR, no_light); }

	lea	r8, QWORD PTR no_light$5[rsp]
$LN94@display:

; 593  : 
; 594  :     glLightfv(GL_LIGHT2, GL_POSITION, light_position);

	call	QWORD PTR __imp_glLightfv
	lea	r8, QWORD PTR light_position$21[rbp-256]
	mov	edx, 4611				; 00001203H
	mov	ecx, 16386				; 00004002H
	call	QWORD PTR __imp_glLightfv

; 595  :     GLfloat spot_direction[] = { 0.3, -1, -0.8 };

	movss	xmm0, DWORD PTR __real@3e99999a

; 596  :     glLightfv(GL_LIGHT2, GL_SPOT_DIRECTION, spot_direction);

	lea	r8, QWORD PTR spot_direction$12[rsp]
	movss	xmm1, DWORD PTR __real@bf800000
	mov	edx, 4612				; 00001204H
	movss	DWORD PTR spot_direction$12[rsp], xmm0
	mov	ecx, 16386				; 00004002H
	movss	xmm0, DWORD PTR __real@bf4ccccd
	movss	DWORD PTR spot_direction$12[rbp-248], xmm0
	movss	DWORD PTR spot_direction$12[rsp+4], xmm1
	call	QWORD PTR __imp_glLightfv

; 597  :     glLightf(GL_LIGHT2, GL_SPOT_CUTOFF, 35.0);

	movss	xmm2, DWORD PTR __real@420c0000
	mov	edx, 4614				; 00001206H
	mov	ecx, 16386				; 00004002H
	call	QWORD PTR __imp_glLightf

; 598  :     glPopMatrix();

	call	QWORD PTR __imp_glPopMatrix

; 681  :     lightOne();
; 682  :     lampLight();
; 683  :     room();

	call	?room@@YAXXZ				; room

; 331  :     glPushMatrix();

	call	QWORD PTR __imp_glPushMatrix

; 332  :     glScalef(0.1, 0.5, 0.9);

	movss	xmm14, DWORD PTR __real@3f666666
	movss	xmm15, DWORD PTR __real@3f000000
	movaps	xmm2, xmm14
	movss	xmm9, DWORD PTR __real@3dcccccd
	movaps	xmm1, xmm15
	movaps	xmm0, xmm9
	call	QWORD PTR __imp_glScalef

; 333  :     glTranslatef(-2, -0.5, 6.2);

	movss	xmm7, DWORD PTR __real@40c66666
	movss	xmm6, DWORD PTR __real@bf000000
	movaps	xmm2, xmm7
	movss	xmm0, DWORD PTR __real@c0000000
	movaps	xmm1, xmm6
	call	QWORD PTR __imp_glTranslatef

; 334  :     drawCube1(0.2, 0.2, 0.2, 0.1, 0.1, 0.05);

	movss	xmm10, DWORD PTR __real@3e4ccccd
	movaps	xmm3, xmm9
	movss	xmm13, DWORD PTR __real@42480000
	movaps	xmm2, xmm10
	movss	xmm8, DWORD PTR __real@3d4ccccd
	movaps	xmm1, xmm10
	movss	DWORD PTR [rsp+48], xmm13
	movaps	xmm0, xmm10
	movss	DWORD PTR [rsp+40], xmm8
	movss	DWORD PTR [rsp+32], xmm9
	call	?drawCube1@@YAXMMMMMMM@Z		; drawCube1

; 335  :     glPopMatrix();

	call	QWORD PTR __imp_glPopMatrix

; 336  : 
; 337  :     //bed body
; 338  :     glPushMatrix();

	call	QWORD PTR __imp_glPushMatrix

; 339  :     glScalef(1, 0.2, 0.9); //1, 0.2, 0.9

	movaps	xmm1, xmm10
	movaps	xmm2, xmm14
	movss	xmm10, DWORD PTR __real@3f800000
	movaps	xmm0, xmm10
	call	QWORD PTR __imp_glScalef

; 340  :     glTranslatef(0, -0.5, 6.2);

	movaps	xmm2, xmm7
	movaps	xmm1, xmm6
	xorps	xmm0, xmm0
	call	QWORD PTR __imp_glTranslatef

; 341  :     drawCube1(0.5, 0.5, 0.5, 0.25, 0.25, 0.25);

	movss	xmm12, DWORD PTR __real@3e800000
	movaps	xmm2, xmm15
	movss	DWORD PTR [rsp+48], xmm13
	movaps	xmm3, xmm12
	movss	DWORD PTR [rsp+40], xmm12
	movaps	xmm1, xmm15
	movaps	xmm0, xmm15
	movss	DWORD PTR [rsp+32], xmm12
	call	?drawCube1@@YAXMMMMMMM@Z		; drawCube1

; 342  :     glPopMatrix();

	call	QWORD PTR __imp_glPopMatrix

; 343  : 
; 344  :     //pillow 
; 345  :     glPushMatrix();

	call	QWORD PTR __imp_glPushMatrix

; 346  :     glTranslatef(0.5, 0.5, 6);

	movss	xmm2, DWORD PTR __real@40c00000
	movaps	xmm1, xmm15
	movaps	xmm0, xmm15
	call	QWORD PTR __imp_glTranslatef

; 347  :     glRotatef(20, 0, 0, 1);

	movss	xmm0, DWORD PTR __real@41a00000
	movaps	xmm3, xmm10
	xorps	xmm2, xmm2
	xorps	xmm1, xmm1
	call	QWORD PTR __imp_glRotatef

; 348  :     glScalef(0.1, 0.15, 0.6);

	movss	xmm11, DWORD PTR __real@3f19999a
	movss	xmm6, DWORD PTR __real@3e19999a
	movaps	xmm2, xmm11
	movaps	xmm1, xmm6
	movaps	xmm0, xmm9
	call	QWORD PTR __imp_glScalef

; 349  :     drawCube1(0.8, 0.6, 0.6, 0.4, 0.2, 0.2);

	movss	xmm0, DWORD PTR __real@3e4ccccd
	movaps	xmm2, xmm11
	movss	xmm10, DWORD PTR __real@3ecccccd
	movaps	xmm1, xmm11
	movss	DWORD PTR [rsp+48], xmm13
	movaps	xmm3, xmm10
	movss	DWORD PTR [rsp+40], xmm0
	movss	DWORD PTR [rsp+32], xmm0
	movss	xmm0, DWORD PTR __real@3f4ccccd
	call	?drawCube1@@YAXMMMMMMM@Z		; drawCube1

; 350  :     glPopMatrix();

	call	QWORD PTR __imp_glPopMatrix

; 361  :     glPushMatrix();

	call	QWORD PTR __imp_glPushMatrix

; 362  :     glTranslatef(0.5, -0.1, 8.7); //0.5,-0.1,9

	movss	xmm2, DWORD PTR __real@410b3333
	movaps	xmm0, xmm15
	movss	xmm1, DWORD PTR __real@bdcccccd
	call	QWORD PTR __imp_glTranslatef

; 363  :     glScalef(0.12, 0.2, 0.23);

	movss	xmm2, DWORD PTR __real@3e6b851f
	movss	xmm1, DWORD PTR __real@3e4ccccd
	movss	xmm0, DWORD PTR __real@3df5c28f
	call	QWORD PTR __imp_glScalef

; 364  :     drawCube1(0.2, 0.1, 0.1, 0.1, 0.1, 0.05);

	movss	xmm0, DWORD PTR __real@3e4ccccd
	movaps	xmm3, xmm9
	movss	DWORD PTR [rsp+48], xmm13
	movaps	xmm2, xmm9
	movss	DWORD PTR [rsp+40], xmm8
	movaps	xmm1, xmm9
	movss	DWORD PTR [rsp+32], xmm9
	call	?drawCube1@@YAXMMMMMMM@Z		; drawCube1

; 365  :     glPopMatrix();

	call	QWORD PTR __imp_glPopMatrix

; 366  : 
; 367  :     //side drawer's drawer
; 368  :     glPushMatrix();

	call	QWORD PTR __imp_glPushMatrix

; 369  :     glTranslatef(0.88, 0, 8.8);

	movss	xmm2, DWORD PTR __real@410ccccd
	xorps	xmm1, xmm1
	movss	xmm0, DWORD PTR __real@3f6147ae
	call	QWORD PTR __imp_glTranslatef

; 370  :     glScalef(0.0001, 0.11, 0.18);

	movss	xmm2, DWORD PTR __real@3e3851ec
	movss	xmm1, DWORD PTR __real@3de147ae
	movss	xmm0, DWORD PTR __real@38d1b717
	call	QWORD PTR __imp_glScalef

; 371  :     drawCube1(0.2, 0.2, 0.2, 0.15, 0.1, 0.1);

	movss	DWORD PTR [rsp+48], xmm13
	movaps	xmm3, xmm6
	movss	DWORD PTR [rsp+40], xmm9
	movss	DWORD PTR [rsp+32], xmm9
	movss	xmm9, DWORD PTR __real@3e4ccccd
	movaps	xmm2, xmm9
	movaps	xmm1, xmm9
	movaps	xmm0, xmm9
	call	?drawCube1@@YAXMMMMMMM@Z		; drawCube1

; 372  :     glPopMatrix();

	call	QWORD PTR __imp_glPopMatrix

; 373  : 
; 374  :     //side drawer's knob
; 375  :     glPushMatrix();

	call	QWORD PTR __imp_glPushMatrix

; 376  :     glTranslatef(0.9, 0.15, 9.05);

	movss	xmm8, DWORD PTR __real@4110cccd
	movaps	xmm1, xmm6
	movaps	xmm2, xmm8
	movaps	xmm0, xmm14
	call	QWORD PTR __imp_glTranslatef

; 377  :     glScalef(0.01, 0.02, 0.02);

	movss	xmm6, DWORD PTR __real@3ca3d70a
	movss	xmm7, DWORD PTR __real@3c23d70a
	movaps	xmm2, xmm6
	movaps	xmm1, xmm6
	movaps	xmm0, xmm7
	call	QWORD PTR __imp_glScalef

; 236  :     GLfloat mat_ambient[] = { ambX, ambY, ambZ, 1.0 };

	movaps	xmm0, XMMWORD PTR __xmm@3f800000000000003d4ccccd3d4ccccd

; 237  :     GLfloat mat_diffuse[] = { difX, difY, difZ, 1.0 };
; 238  :     GLfloat mat_specular[] = { 1.0, 1.0, 1.0, 1.0 };
; 239  :     GLfloat mat_shininess[] = { shine };
; 240  : 
; 241  :     //ËÆæÁΩÆÊùêÊñôÂ±ûÊÄß
; 242  :     glMaterialfv(GL_FRONT, GL_AMBIENT, mat_ambient);    // ÊùêË¥®ÁöÑÁéØÂ¢ÉÈ¢úËâ≤

	lea	r8, QWORD PTR mat_ambient$19[rbp-256]
	movaps	xmm1, XMMWORD PTR __xmm@3f800000000000003dcccccd3e4ccccd
	mov	edx, 4608				; 00001200H
	movups	XMMWORD PTR mat_ambient$19[rbp-256], xmm0
	mov	ecx, 1028				; 00000404H
	movaps	xmm0, XMMWORD PTR __xmm@3f8000003f8000003f8000003f800000
	movups	XMMWORD PTR mat_specular$15[rbp-256], xmm0
	movss	xmm0, DWORD PTR __real@42b40000
	movss	DWORD PTR mat_shininess$3[rsp], xmm0
	movups	XMMWORD PTR mat_diffuse$9[rsp], xmm1
	call	QWORD PTR __imp_glMaterialfv

; 243  :     glMaterialfv(GL_FRONT, GL_DIFFUSE, mat_diffuse);    // ÊùêË¥®ÁöÑÊï£Â∞ÑÈ¢úËâ≤

	lea	r8, QWORD PTR mat_diffuse$9[rsp]
	mov	edx, 4609				; 00001201H
	mov	ecx, 1028				; 00000404H
	call	QWORD PTR __imp_glMaterialfv

; 244  :     glMaterialfv(GL_FRONT, GL_SPECULAR, mat_specular);    // ÊùêË¥®ÁöÑÈïúÈù¢ÂèçÂ∞ÑÈ¢úËâ≤

	lea	r8, QWORD PTR mat_specular$15[rbp-256]
	mov	edx, 4610				; 00001202H
	mov	ecx, 1028				; 00000404H
	call	QWORD PTR __imp_glMaterialfv

; 245  :     glMaterialfv(GL_FRONT, GL_SHININESS, mat_shininess);    // ÈïúÈù¢ÂèçÂ∞ÑÊåáÊï∞

	lea	r8, QWORD PTR mat_shininess$3[rsp]
	mov	edx, 5633				; 00001601H
	mov	ecx, 1028				; 00000404H
	call	QWORD PTR __imp_glMaterialfv

; 246  : 
; 247  :     glutSolidSphere(3.0, 20, 16);    //ÂçäÂæÑ‰∏∫3.0, 20Êù°Á∫¨Á∫ø, 16Êù°ÁªèÁ∫ø

	movsd	xmm0, QWORD PTR __real@4008000000000000
	mov	edx, 20
	lea	r8d, QWORD PTR [rdx-4]
	call	QWORD PTR __imp_glutSolidSphere

; 379  :     glPopMatrix();

	call	QWORD PTR __imp_glPopMatrix

; 385  :     glPushMatrix();

	call	QWORD PTR __imp_glPushMatrix

; 386  :     glTranslatef(.6, 0.5, 8.95);

	movss	xmm2, DWORD PTR __real@410f3333
	movaps	xmm1, xmm15
	movaps	xmm0, xmm11
	call	QWORD PTR __imp_glTranslatef

; 387  :     glScalef(0.07, 0.02, 0.07);

	movss	xmm0, DWORD PTR __real@3d8f5c29
	movaps	xmm1, xmm6
	movaps	xmm2, xmm0
	call	QWORD PTR __imp_glScalef

; 388  :     drawCube1(0, 0, 0.4, 0, 0, 0.2);

	movss	DWORD PTR [rsp+48], xmm13
	xorps	xmm6, xmm6
	movss	DWORD PTR [rsp+40], xmm9
	xorps	xmm3, xmm3
	movaps	xmm2, xmm10
	movss	DWORD PTR [rsp+32], xmm6
	xorps	xmm1, xmm1
	xorps	xmm0, xmm0
	call	?drawCube1@@YAXMMMMMMM@Z		; drawCube1

; 389  :     glPopMatrix();

	call	QWORD PTR __imp_glPopMatrix

; 390  : 
; 391  :     //lamp stand
; 392  :     glColor3f(1, 0, 0);

	movss	xmm0, DWORD PTR __real@3f800000
	xorps	xmm2, xmm2
	xorps	xmm1, xmm1
	call	QWORD PTR __imp_glColor3f

; 393  :     glPushMatrix();

	call	QWORD PTR __imp_glPushMatrix

; 394  :     glTranslatef(.7, 0.35, 9.05);

	movss	xmm1, DWORD PTR __real@3eb33333
	movaps	xmm2, xmm8
	movss	xmm0, DWORD PTR __real@3f333333
	call	QWORD PTR __imp_glTranslatef

; 395  :     glScalef(0.01, 0.2, 0.01);

	movaps	xmm2, xmm7
	movaps	xmm1, xmm9
	movaps	xmm0, xmm7
	call	QWORD PTR __imp_glScalef

; 396  :     drawCube1(0, 0, 0.4, 0.0, 0.0, 0.2);

	movss	DWORD PTR [rsp+48], xmm13
	xorps	xmm3, xmm3
	movss	DWORD PTR [rsp+40], xmm9
	movaps	xmm2, xmm10
	xorps	xmm1, xmm1
	movss	DWORD PTR [rsp+32], xmm6
	xorps	xmm0, xmm0
	call	?drawCube1@@YAXMMMMMMM@Z		; drawCube1

; 397  :     glPopMatrix();

	call	QWORD PTR __imp_glPopMatrix

; 398  : 
; 399  :     //lamp shade
; 400  :     glColor3f(0.000, 0.000, 0.545);

	movss	xmm2, DWORD PTR __real@3f0b851f
	xorps	xmm1, xmm1
	xorps	xmm0, xmm0
	call	QWORD PTR __imp_glColor3f

; 401  :     glPushMatrix();

	call	QWORD PTR __imp_glPushMatrix

; 402  :     glTranslatef(.6, 0.9, 8.9);

	movss	xmm2, DWORD PTR __real@410e6666
	movaps	xmm1, xmm14
	movaps	xmm0, xmm11
	call	QWORD PTR __imp_glTranslatef

; 403  :     glScalef(0.08, 0.09, 0.08);

	movss	xmm0, DWORD PTR __real@3da3d70a
	movss	xmm1, DWORD PTR __real@3db851ec
	movaps	xmm2, xmm0
	call	QWORD PTR __imp_glScalef

; 404  :     drawTrapezoid(0.0, 0.0, 0.5, 0, 0, 0.25);

	movss	DWORD PTR [rsp+48], xmm13
	xorps	xmm3, xmm3
	movss	DWORD PTR [rsp+40], xmm12
	movaps	xmm2, xmm15
	xorps	xmm1, xmm1
	movss	DWORD PTR [rsp+32], xmm6
	xorps	xmm0, xmm0
	call	?drawTrapezoid@@YAXMMMMMMM@Z		; drawTrapezoid

; 405  :     
; 406  :     glPopMatrix();

	call	QWORD PTR __imp_glPopMatrix

; 412  :     glPushMatrix();

	call	QWORD PTR __imp_glPushMatrix

; 413  : 
; 414  :     GLfloat no_mat[] = { 0.1, 0.1, 0.1, 1.0 };
; 415  :     GLfloat mat_diffuse[] = { 1.0, 1.0, 1.0, 1.0 };

	movaps	xmm1, XMMWORD PTR __xmm@3f8000003f8000003f8000003f800000
	movaps	xmm0, XMMWORD PTR __xmm@3f8000003dcccccd3dcccccd3dcccccd
	movups	XMMWORD PTR no_mat$20[rbp-256], xmm0

; 416  :     GLfloat mat_specular[] = { 1.0, 1.0, 1.0, 1.0 };

	movaps	xmm0, xmm1

; 417  :     GLfloat mat_shininess[] = { 32 };

	movss	xmm0, DWORD PTR __real@42000000
	movups	XMMWORD PTR mat_diffuse$8[rsp], xmm1
	movups	XMMWORD PTR mat_specular$14[rbp-256], xmm1

; 418  : 
; 419  :     //ËÆæÁΩÆÊùêÊñôÂ±ûÊÄß
; 420  :     glMaterialfv(GL_FRONT, GL_AMBIENT, no_mat);    // ÊùêË¥®ÁöÑÁéØÂ¢ÉÈ¢úËâ≤

	lea	r8, QWORD PTR no_mat$20[rbp-256]
	movss	DWORD PTR mat_shininess$2[rsp], xmm0
	mov	edx, 4608				; 00001200H
	mov	ecx, 1028				; 00000404H
	call	QWORD PTR __imp_glMaterialfv

; 421  :     glMaterialfv(GL_FRONT, GL_DIFFUSE, mat_diffuse);    // ÊùêË¥®ÁöÑÊï£Â∞ÑÈ¢úËâ≤

	lea	r8, QWORD PTR mat_diffuse$8[rsp]
	mov	edx, 4609				; 00001201H
	mov	ecx, 1028				; 00000404H
	call	QWORD PTR __imp_glMaterialfv

; 422  :     glMaterialfv(GL_FRONT, GL_SPECULAR, mat_specular);    // ÊùêË¥®ÁöÑÈïúÈù¢ÂèçÂ∞ÑÈ¢úËâ≤

	lea	r8, QWORD PTR mat_specular$14[rbp-256]
	mov	edx, 4610				; 00001202H
	mov	ecx, 1028				; 00000404H
	call	QWORD PTR __imp_glMaterialfv

; 423  :     glMaterialfv(GL_FRONT, GL_SHININESS, mat_shininess);    // ÈïúÈù¢ÂèçÂ∞ÑÊåáÊï∞

	lea	r8, QWORD PTR mat_shininess$2[rsp]
	mov	edx, 5633				; 00001601H
	mov	ecx, 1028				; 00000404H
	call	QWORD PTR __imp_glMaterialfv

; 424  : 
; 425  :     glColor3f(1.0, 1.0, 1.0);

	movss	xmm10, DWORD PTR __real@3f800000
	movaps	xmm2, xmm10
	movaps	xmm1, xmm10
	movaps	xmm0, xmm10
	call	QWORD PTR __imp_glColor3f

; 426  :     glPushMatrix();

	call	QWORD PTR __imp_glPushMatrix

; 427  :     glEnable(GL_TEXTURE_2D);

	mov	ecx, 3553				; 00000de1H
	call	QWORD PTR __imp_glEnable

; 428  :     glBindTexture(GL_TEXTURE_2D, textureVec[2]);

	mov	edx, DWORD PTR ?textureVec@@3PAIA+8
	mov	ecx, 3553				; 00000de1H
	call	QWORD PTR __imp_glBindTexture

; 429  :     glBegin(GL_QUADS);

	mov	ecx, 7
	call	QWORD PTR __imp_glBegin
	xorps	xmm2, xmm2
	xorps	xmm1, xmm1

; 430  :     glNormal3f(1, 0, 0);

	movaps	xmm0, xmm10
	call	QWORD PTR __imp_glNormal3f
	xorps	xmm1, xmm1
	xorps	xmm0, xmm0

; 431  :     glTexCoord2f(0, 0); glVertex3f(-0.99, 1.4, 5);

	call	QWORD PTR __imp_glTexCoord2f
	movss	xmm9, DWORD PTR __real@40a00000
	movss	xmm7, DWORD PTR __real@3fb33333
	movaps	xmm2, xmm9
	movss	xmm8, DWORD PTR __real@bf7d70a4
	movaps	xmm1, xmm7
	movaps	xmm0, xmm8
	call	QWORD PTR __imp_glVertex3f
	xorps	xmm1, xmm1

; 432  :     glTexCoord2f(1, 0); glVertex3f(-0.99, 1.4, 7);

	movaps	xmm0, xmm10
	call	QWORD PTR __imp_glTexCoord2f
	movss	xmm6, DWORD PTR __real@40e00000
	movaps	xmm1, xmm7
	movaps	xmm2, xmm6
	movaps	xmm0, xmm8
	call	QWORD PTR __imp_glVertex3f

; 433  :     glTexCoord2f(1, 1); glVertex3f(-0.99, 3.2, 7);

	movaps	xmm1, xmm10
	movaps	xmm0, xmm10
	call	QWORD PTR __imp_glTexCoord2f
	movaps	xmm2, xmm6
	movaps	xmm0, xmm8
	movss	xmm6, DWORD PTR __real@404ccccd
	movaps	xmm1, xmm6
	call	QWORD PTR __imp_glVertex3f

; 434  :     glTexCoord2f(0, 1); glVertex3f(-0.99, 3.2, 5);

	movaps	xmm1, xmm10
	xorps	xmm0, xmm0
	call	QWORD PTR __imp_glTexCoord2f
	movaps	xmm2, xmm9
	movaps	xmm1, xmm6
	movaps	xmm0, xmm8
	call	QWORD PTR __imp_glVertex3f

; 435  :     glEnd();

	call	QWORD PTR __imp_glEnd

; 436  :     glDisable(GL_TEXTURE_2D);

	mov	ecx, 3553				; 00000de1H
	call	QWORD PTR __imp_glDisable

; 437  :     glPopMatrix();

	call	QWORD PTR __imp_glPopMatrix

; 438  :     glPopMatrix();

	call	QWORD PTR __imp_glPopMatrix

; 684  :     bed();
; 685  :     bedsideDrawer();
; 686  :     lamp();
; 687  :     Pic();
; 688  :     wardrobe();

	call	?wardrobe@@YAXXZ			; wardrobe

; 689  :     cupboard();

	call	?cupboard@@YAXXZ			; cupboard

; 516  :     GLfloat no_mat[] = { 0.0, 0.0, 0.0, 1.0 };

	movaps	xmm0, XMMWORD PTR __xmm@3f800000000000000000000000000000

; 517  :     GLfloat mat_ambient[] = { 0.7, 0.7, 0.7, 1.0 };
; 518  :     GLfloat mat_ambient_color[] = { 0.8, 0.8, 0.2, 1.0 };
; 519  :     GLfloat mat_diffuse[] = { 1.000, 0.843, 0.000, 1.0 };

	movaps	xmm1, XMMWORD PTR __xmm@3f800000000000003f57ced93f800000
	movups	XMMWORD PTR no_mat$4[rsp], xmm0

; 520  :     GLfloat mat_specular[] = { 1.0, 1.0, 1.0, 1.0 };
; 521  :     GLfloat high_shininess[] = { 100.0 };

	movss	xmm0, DWORD PTR __real@42c80000
	movups	XMMWORD PTR mat_diffuse$18[rbp-256], xmm1

; 522  :     GLfloat mat_emission[] = { 1.000, 1,1, 0.0 };

	movaps	xmm1, XMMWORD PTR __xmm@000000003f8000003f8000003f800000
	movss	DWORD PTR high_shininess$1[rsp], xmm0
	movups	XMMWORD PTR mat_emission$7[rsp], xmm1

; 523  : 
; 524  :     glPushMatrix();

	call	QWORD PTR __imp_glPushMatrix

; 525  :     glTranslatef(5, 5, 8);

	movss	xmm2, DWORD PTR __real@41000000
	movaps	xmm1, xmm9
	movaps	xmm0, xmm9
	call	QWORD PTR __imp_glTranslatef

; 526  :     glScalef(0.2, 0.2, 0.2);

	movss	xmm0, DWORD PTR __real@3e4ccccd
	movaps	xmm2, xmm0
	movaps	xmm1, xmm0
	call	QWORD PTR __imp_glScalef

; 527  : 
; 528  :     //ËÆæÁΩÆÊùêÊñôÂ±ûÊÄß
; 529  :     glMaterialfv(GL_FRONT, GL_AMBIENT, no_mat); // ÊùêË¥®ÁöÑÁéØÂ¢ÉÈ¢úËâ≤

	lea	r8, QWORD PTR no_mat$4[rsp]
	mov	edx, 4608				; 00001200H
	mov	ecx, 1028				; 00000404H
	call	QWORD PTR __imp_glMaterialfv

; 530  :     glMaterialfv(GL_FRONT, GL_DIFFUSE, mat_diffuse);// ÊùêË¥®ÁöÑÊï£Â∞ÑÈ¢úËâ≤

	lea	r8, QWORD PTR mat_diffuse$18[rbp-256]
	mov	edx, 4609				; 00001201H
	mov	ecx, 1028				; 00000404H
	call	QWORD PTR __imp_glMaterialfv

; 531  :     glMaterialfv(GL_FRONT, GL_SPECULAR, no_mat); // ÊùêË¥®ÁöÑÈïúÈù¢ÂèçÂ∞ÑÈ¢úËâ≤

	lea	r8, QWORD PTR no_mat$4[rsp]
	mov	edx, 4610				; 00001202H
	mov	ecx, 1028				; 00000404H
	call	QWORD PTR __imp_glMaterialfv

; 532  :     glMaterialfv(GL_FRONT, GL_SHININESS, high_shininess);// ÊùêË¥®ÁöÑÈïúÈù¢ÂèçÂ∞ÑÈ¢úËâ≤

	lea	r8, QWORD PTR high_shininess$1[rsp]
	mov	edx, 5633				; 00001601H
	mov	ecx, 1028				; 00000404H
	call	QWORD PTR __imp_glMaterialfv

; 533  : 
; 534  :     //Âà§Êñ≠ÂºÄÂÖ≥ÊòØÂê¶ÊâìÂºÄ
; 535  :     if (switchOne == true) {

	cmp	BYTE PTR ?switchOne@@3EA, 1		; switchOne

; 536  :         glMaterialfv(GL_FRONT, GL_EMISSION, mat_emission);

	lea	r8, QWORD PTR mat_emission$7[rsp]
	mov	edx, 5632				; 00001600H
	mov	ecx, 1028				; 00000404H
	je	SHORT $LN95@display

; 537  :     }
; 538  :     else {
; 539  :         glMaterialfv(GL_FRONT, GL_EMISSION, no_mat);

	lea	r8, QWORD PTR no_mat$4[rsp]
$LN95@display:

; 540  :     }
; 541  : 
; 542  :     glutSolidSphere(1.0, 16, 16);

	call	QWORD PTR __imp_glMaterialfv
	movsd	xmm0, QWORD PTR __real@3ff0000000000000
	mov	edx, 16
	mov	r8d, edx
	call	QWORD PTR __imp_glutSolidSphere

; 543  :     glPopMatrix();

	call	QWORD PTR __imp_glPopMatrix

; 690  :     lightBulb1();
; 691  : 
; 692  :     glDisable(GL_LIGHTING);

	mov	ecx, 2896				; 00000b50H
	call	QWORD PTR __imp_glDisable

; 693  : 
; 694  :     glFlush();

	call	QWORD PTR __imp_glFlush

; 695  :     glutSwapBuffers();

	call	QWORD PTR __imp_glutSwapBuffers

; 696  : }

	mov	rcx, QWORD PTR __$ArrayPad$[rbp-256]
	xor	rcx, rsp
	call	__security_check_cookie
	lea	r11, QWORD PTR [rsp+352]
	movaps	xmm6, XMMWORD PTR [r11-16]
	movaps	xmm7, XMMWORD PTR [r11-32]
	movaps	xmm8, XMMWORD PTR [r11-48]
	movaps	xmm9, XMMWORD PTR [r11-64]
	movaps	xmm10, XMMWORD PTR [r11-80]
	movaps	xmm11, XMMWORD PTR [r11-96]
	movaps	xmm12, XMMWORD PTR [r11-112]
	movaps	xmm13, XMMWORD PTR [r11-128]
	movaps	xmm14, XMMWORD PTR [r11-144]
	movaps	xmm15, XMMWORD PTR [r11-160]
	mov	rsp, r11
	pop	rbp
	ret	0
?display@@YAXXZ ENDP					; display
_TEXT	ENDS
; Function compile flags: /Ogtpy
; File E:\xxxDATA\¥Û»˝…œ\–Èƒ‚œ÷ µ\22120111 –‹œËœË OpenGL¥Û◊˜“µ\room\room\room.cpp
;	COMDAT ?myKeyboardFunc@@YAXEHH@Z
_TEXT	SEGMENT
key$ = 48
x$ = 56
y$ = 64
?myKeyboardFunc@@YAXEHH@Z PROC				; myKeyboardFunc, COMDAT

; 699  : {

$LN28:
	sub	rsp, 40					; 00000028H

; 700  :     switch (key)

	movzx	eax, cl
	add	eax, -27
	cmp	eax, 92					; 0000005cH
	ja	SHORT $LN2@myKeyboard
	lea	rdx, OFFSET FLAT:__ImageBase
	cdqe
	movzx	eax, BYTE PTR $LN23@myKeyboard[rdx+rax]
	mov	ecx, DWORD PTR $LN24@myKeyboard[rdx+rax*4]
	add	rcx, rdx
	jmp	rcx
$LN4@myKeyboard:

; 701  :     {
; 702  :     case 'w': // move eye point upwards along Y axis
; 703  :         eyeY += 1.0;

	movsd	xmm0, QWORD PTR ?eyeY@@3NA		; eyeY
	addsd	xmm0, QWORD PTR __real@3ff0000000000000

; 755  :     }
; 756  : 
; 757  :     glutPostRedisplay();

	movsd	QWORD PTR ?eyeY@@3NA, xmm0		; eyeY
$LN2@myKeyboard:

; 758  : }

	add	rsp, 40					; 00000028H

; 755  :     }
; 756  : 
; 757  :     glutPostRedisplay();

	rex_jmp	QWORD PTR __imp_glutPostRedisplay
$LN5@myKeyboard:

; 704  :         break;
; 705  :     case 's': // move eye point downwards along Y axis
; 706  :         eyeY -= 1.0;

	movsd	xmm0, QWORD PTR ?eyeY@@3NA		; eyeY
	addsd	xmm0, QWORD PTR __real@bff0000000000000

; 755  :     }
; 756  : 
; 757  :     glutPostRedisplay();

	movsd	QWORD PTR ?eyeY@@3NA, xmm0		; eyeY

; 758  : }

	add	rsp, 40					; 00000028H

; 755  :     }
; 756  : 
; 757  :     glutPostRedisplay();

	rex_jmp	QWORD PTR __imp_glutPostRedisplay
$LN6@myKeyboard:

; 707  :         break;
; 708  :     case 'a': // move eye point left along X axis
; 709  :         eyeX -= 1.0;

	movsd	xmm0, QWORD PTR ?eyeX@@3NA		; eyeX
	addsd	xmm0, QWORD PTR __real@bff0000000000000
	movsd	QWORD PTR ?eyeX@@3NA, xmm0		; eyeX

; 758  : }

	add	rsp, 40					; 00000028H

; 755  :     }
; 756  : 
; 757  :     glutPostRedisplay();

	rex_jmp	QWORD PTR __imp_glutPostRedisplay
$LN7@myKeyboard:

; 710  :         break;
; 711  :     case 'd': // move eye point right along X axis
; 712  :         eyeX += 1.0;

	movsd	xmm0, QWORD PTR ?eyeX@@3NA		; eyeX
	addsd	xmm0, QWORD PTR __real@3ff0000000000000
	movsd	QWORD PTR ?eyeX@@3NA, xmm0		; eyeX

; 758  : }

	add	rsp, 40					; 00000028H

; 755  :     }
; 756  : 
; 757  :     glutPostRedisplay();

	rex_jmp	QWORD PTR __imp_glutPostRedisplay
$LN8@myKeyboard:

; 713  :         break;
; 714  :     case 'o':  //zoom out
; 715  :         eyeZ += 1;

	movsd	xmm0, QWORD PTR ?eyeZ@@3NA		; eyeZ
	addsd	xmm0, QWORD PTR __real@3ff0000000000000
	movsd	QWORD PTR ?eyeZ@@3NA, xmm0		; eyeZ

; 758  : }

	add	rsp, 40					; 00000028H

; 755  :     }
; 756  : 
; 757  :     glutPostRedisplay();

	rex_jmp	QWORD PTR __imp_glutPostRedisplay
$LN9@myKeyboard:

; 716  :         break;
; 717  :     case 'i': //zoom in
; 718  :         eyeZ -= 1;

	movsd	xmm0, QWORD PTR ?eyeZ@@3NA		; eyeZ
	addsd	xmm0, QWORD PTR __real@bff0000000000000
	movsd	QWORD PTR ?eyeZ@@3NA, xmm0		; eyeZ

; 758  : }

	add	rsp, 40					; 00000028H

; 755  :     }
; 756  : 
; 757  :     glutPostRedisplay();

	rex_jmp	QWORD PTR __imp_glutPostRedisplay
$LN10@myKeyboard:

; 719  :         break;
; 720  :     case 'q': //back to default eye point and ref point
; 721  :         eyeX = 7.0; eyeY = 2.0; eyeZ = 15.0;

	movsd	xmm0, QWORD PTR __real@401c000000000000
	movsd	xmm1, QWORD PTR __real@4000000000000000
	movsd	QWORD PTR ?eyeX@@3NA, xmm0		; eyeX
	movsd	xmm0, QWORD PTR __real@402e000000000000
	movsd	QWORD PTR ?eyeY@@3NA, xmm1		; eyeY
	xorps	xmm1, xmm1
	movsd	QWORD PTR ?eyeZ@@3NA, xmm0		; eyeZ

; 722  :         refX = 0.0; refY = 0.0; refZ = 0.0;

	movsd	QWORD PTR ?refX@@3NA, xmm1		; refX
	movsd	QWORD PTR ?refY@@3NA, xmm1		; refY
	movsd	QWORD PTR ?refZ@@3NA, xmm1		; refZ

; 758  : }

	add	rsp, 40					; 00000028H

; 755  :     }
; 756  : 
; 757  :     glutPostRedisplay();

	rex_jmp	QWORD PTR __imp_glutPostRedisplay
$LN11@myKeyboard:

; 723  :         break;
; 724  :     case 'k':  //move ref point away from screen/ along z axis
; 725  :         refZ += 1;

	movsd	xmm0, QWORD PTR ?refZ@@3NA		; refZ
	addsd	xmm0, QWORD PTR __real@3ff0000000000000
	movsd	QWORD PTR ?refZ@@3NA, xmm0		; refZ

; 758  : }

	add	rsp, 40					; 00000028H

; 755  :     }
; 756  : 
; 757  :     glutPostRedisplay();

	rex_jmp	QWORD PTR __imp_glutPostRedisplay
$LN12@myKeyboard:

; 726  :         break;
; 727  :     case 'l': //move ref point towards screen/ along z axis
; 728  :         refZ -= 1;

	movsd	xmm0, QWORD PTR ?refZ@@3NA		; refZ
	addsd	xmm0, QWORD PTR __real@bff0000000000000
	movsd	QWORD PTR ?refZ@@3NA, xmm0		; refZ

; 758  : }

	add	rsp, 40					; 00000028H

; 755  :     }
; 756  : 
; 757  :     glutPostRedisplay();

	rex_jmp	QWORD PTR __imp_glutPostRedisplay
$LN13@myKeyboard:

; 729  :         break;
; 730  :     case '1': //to turn on and off light one
; 731  :         if (switchOne == false)

	movzx	eax, BYTE PTR ?switchOne@@3EA		; switchOne
	test	al, al
	jne	SHORT $LN14@myKeyboard

; 732  :         {
; 733  :             switchOne = true; amb1 = true; diff1 = true; spec1 = true;
; 734  :             glEnable(GL_LIGHT0); break;

	mov	ecx, 16384				; 00004000H
	mov	BYTE PTR ?switchOne@@3EA, 1		; switchOne
	mov	BYTE PTR ?amb1@@3EA, 1			; amb1
	mov	BYTE PTR ?diff1@@3EA, 1			; diff1
	mov	BYTE PTR ?spec1@@3EA, 1			; spec1
	call	QWORD PTR __imp_glEnable

; 758  : }

	add	rsp, 40					; 00000028H

; 755  :     }
; 756  : 
; 757  :     glutPostRedisplay();

	rex_jmp	QWORD PTR __imp_glutPostRedisplay
$LN14@myKeyboard:

; 735  :         }
; 736  :         else if (switchOne == true)

	cmp	al, 1
	jne	SHORT $LN16@myKeyboard

; 737  :         {
; 738  :             switchOne = false; amb1 = false; diff1 = false; spec1 = false; glDisable(GL_LIGHT0); break;

	mov	ecx, 16384				; 00004000H
	mov	BYTE PTR ?switchOne@@3EA, 0		; switchOne
	mov	BYTE PTR ?amb1@@3EA, 0			; amb1
	mov	BYTE PTR ?diff1@@3EA, 0			; diff1
	mov	BYTE PTR ?spec1@@3EA, 0			; spec1
	call	QWORD PTR __imp_glDisable

; 758  : }

	add	rsp, 40					; 00000028H

; 755  :     }
; 756  : 
; 757  :     glutPostRedisplay();

	rex_jmp	QWORD PTR __imp_glutPostRedisplay
$LN16@myKeyboard:

; 739  :         }
; 740  :         
; 741  :     case '2': //to turn on and off light one
; 742  :         if (switchLamp == false)

	movzx	eax, BYTE PTR ?switchLamp@@3EA		; switchLamp
	test	al, al
	jne	SHORT $LN18@myKeyboard

; 743  :         {
; 744  :             switchLamp = true; amb2 = true; diff2 = true; spec2 = true;
; 745  :             glEnable(GL_LIGHT2); break;

	mov	ecx, 16386				; 00004002H
	mov	BYTE PTR ?switchLamp@@3EA, 1		; switchLamp
	mov	BYTE PTR ?amb2@@3EA, 1			; amb2
	mov	BYTE PTR ?diff2@@3EA, 1			; diff2
	mov	BYTE PTR ?spec2@@3EA, 1			; spec2
	call	QWORD PTR __imp_glEnable

; 758  : }

	add	rsp, 40					; 00000028H

; 755  :     }
; 756  : 
; 757  :     glutPostRedisplay();

	rex_jmp	QWORD PTR __imp_glutPostRedisplay
$LN18@myKeyboard:

; 746  :         }
; 747  :         else if (switchLamp == true)

	cmp	al, 1
	jne	SHORT $LN20@myKeyboard

; 748  :         {
; 749  :             switchLamp = false; amb2 = false; diff2 = false; spec2 = false;
; 750  :             glDisable(GL_LIGHT2); break;

	mov	ecx, 16386				; 00004002H
	mov	BYTE PTR ?switchLamp@@3EA, 0		; switchLamp
	mov	BYTE PTR ?amb2@@3EA, 0			; amb2
	mov	BYTE PTR ?diff2@@3EA, 0			; diff2
	mov	BYTE PTR ?spec2@@3EA, 0			; spec2
	call	QWORD PTR __imp_glDisable

; 758  : }

	add	rsp, 40					; 00000028H

; 755  :     }
; 756  : 
; 757  :     glutPostRedisplay();

	rex_jmp	QWORD PTR __imp_glutPostRedisplay
$LN20@myKeyboard:

; 751  :         }
; 752  :       
; 753  :     case 27:    // Escape key
; 754  :         exit(1);

	mov	ecx, 1
	call	exit
	int	3
$LN25@myKeyboard:
	npad	1
$LN24@myKeyboard:

; 758  : }

	DD	$LN20@myKeyboard
	DD	$LN13@myKeyboard
	DD	$LN16@myKeyboard
	DD	$LN6@myKeyboard
	DD	$LN7@myKeyboard
	DD	$LN9@myKeyboard
	DD	$LN11@myKeyboard
	DD	$LN12@myKeyboard
	DD	$LN8@myKeyboard
	DD	$LN10@myKeyboard
	DD	$LN5@myKeyboard
	DD	$LN4@myKeyboard
	DD	$LN2@myKeyboard
$LN23@myKeyboard:
	DB	0
	DB	12
	DB	12
	DB	12
	DB	12
	DB	12
	DB	12
	DB	12
	DB	12
	DB	12
	DB	12
	DB	12
	DB	12
	DB	12
	DB	12
	DB	12
	DB	12
	DB	12
	DB	12
	DB	12
	DB	12
	DB	12
	DB	1
	DB	2
	DB	12
	DB	12
	DB	12
	DB	12
	DB	12
	DB	12
	DB	12
	DB	12
	DB	12
	DB	12
	DB	12
	DB	12
	DB	12
	DB	12
	DB	12
	DB	12
	DB	12
	DB	12
	DB	12
	DB	12
	DB	12
	DB	12
	DB	12
	DB	12
	DB	12
	DB	12
	DB	12
	DB	12
	DB	12
	DB	12
	DB	12
	DB	12
	DB	12
	DB	12
	DB	12
	DB	12
	DB	12
	DB	12
	DB	12
	DB	12
	DB	12
	DB	12
	DB	12
	DB	12
	DB	12
	DB	12
	DB	3
	DB	12
	DB	12
	DB	4
	DB	12
	DB	12
	DB	12
	DB	12
	DB	5
	DB	12
	DB	6
	DB	7
	DB	12
	DB	12
	DB	8
	DB	12
	DB	9
	DB	12
	DB	10
	DB	12
	DB	12
	DB	12
	DB	11
?myKeyboardFunc@@YAXEHH@Z ENDP				; myKeyboardFunc
_TEXT	ENDS
; Function compile flags: /Ogtpy
; File E:\xxxDATA\¥Û»˝…œ\–Èƒ‚œ÷ µ\22120111 –‹œËœË OpenGL¥Û◊˜“µ\room\room\room.cpp
;	COMDAT ?animate@@YAXXZ
_TEXT	SEGMENT
?animate@@YAXXZ PROC					; animate, COMDAT

; 763  :     if (redFlag == true)

	movzx	eax, BYTE PTR ?redFlag@@3EA		; redFlag
	cmp	al, 1
	jne	SHORT $LN2@animate

; 764  :     {
; 765  :         theta += 2;

	movsd	xmm1, QWORD PTR ?theta@@3NA		; theta

; 766  :         z -= 0.02; //0.016667;

	movsd	xmm0, QWORD PTR ?z@@3NA			; z
	addsd	xmm1, QWORD PTR __real@4000000000000000
	addsd	xmm0, QWORD PTR __real@bf947ae147ae147b
	ucomisd	xmm1, QWORD PTR __real@406a400000000000
	movsd	QWORD PTR ?theta@@3NA, xmm1		; theta
	movsd	QWORD PTR ?z@@3NA, xmm0			; z
	jp	SHORT $LN20@animate

; 767  :         if (theta >= 196 && theta <= 210)
; 768  :         {
; 769  :             y = 1.44;
; 770  :         }
; 771  :         else if (theta >= 180 && theta <= 194)
; 772  :         {
; 773  :             y = 1.42;
; 774  :         }
; 775  :         else if (theta >= 180 && theta <= 194)
; 776  :         {
; 777  :             y = 1.4;
; 778  :         }
; 779  :         else if (theta >= 164 && theta <= 178)
; 780  :         {
; 781  :             y = 1.42;
; 782  :         }
; 783  : 
; 784  :         if (theta == 210)

	jne	SHORT $LN20@animate

; 785  :         {
; 786  :             redFlag = false;

	mov	BYTE PTR ?redFlag@@3EA, 0		; redFlag

; 814  :         }
; 815  :     }
; 816  : 
; 817  :     glutPostRedisplay();

	rex_jmp	QWORD PTR __imp_glutPostRedisplay
$LN2@animate:

; 787  :         }
; 788  :     }
; 789  :     else if (redFlag == false)

	test	al, al
	jne	SHORT $LN20@animate

; 790  :     {
; 791  :         theta -= 2;

	movsd	xmm1, QWORD PTR ?theta@@3NA		; theta

; 792  :         z += 0.02;//0.016667;

	movsd	xmm0, QWORD PTR ?z@@3NA			; z
	addsd	xmm1, QWORD PTR __real@c000000000000000
	addsd	xmm0, QWORD PTR __real@3f947ae147ae147b
	ucomisd	xmm1, QWORD PTR __real@4062c00000000000
	movsd	QWORD PTR ?theta@@3NA, xmm1		; theta
	movsd	QWORD PTR ?z@@3NA, xmm0			; z
	jp	SHORT $LN20@animate

; 793  : 
; 794  :         if (theta >= 196 && theta <= 210)
; 795  :         {
; 796  :             y = 1.44;
; 797  :         }
; 798  :         else if (theta >= 180 && theta <= 194)
; 799  :         {
; 800  :             y = 1.42;
; 801  :         }
; 802  :         else if (theta >= 180 && theta <= 194)
; 803  :         {
; 804  :             y = 1.4;
; 805  :         }
; 806  :         else if (theta >= 164 && theta <= 178)
; 807  :         {
; 808  :             y = 1.42;
; 809  :         }
; 810  : 
; 811  :         if (theta == 150)

	jne	SHORT $LN20@animate

; 812  :         {
; 813  :             redFlag = true;

	mov	BYTE PTR ?redFlag@@3EA, 1		; redFlag
$LN20@animate:

; 814  :         }
; 815  :     }
; 816  : 
; 817  :     glutPostRedisplay();

	rex_jmp	QWORD PTR __imp_glutPostRedisplay
?animate@@YAXXZ ENDP					; animate
_TEXT	ENDS
; Function compile flags: /Ogtpy
; File E:\xxxDATA\¥Û»˝…œ\–Èƒ‚œ÷ µ\22120111 –‹œËœË OpenGL¥Û◊˜“µ\room\room\room.cpp
;	COMDAT ?fullScreen@@YAXHH@Z
_TEXT	SEGMENT
w$ = 48
h$ = 56
?fullScreen@@YAXHH@Z PROC				; fullScreen, COMDAT

; 822  : {

$LN5:
	mov	QWORD PTR [rsp+8], rbx
	push	rdi
	sub	rsp, 32					; 00000020H

; 823  :     //Prevent a divide by zero, when window is too short;you cant make a window of zero width.
; 824  :     if (h == 0)
; 825  :         h = 1;
; 826  :     float ratio = (GLfloat)w / (GLfloat)h;         //Calculate aspect ratio of the window
; 827  : 
; 828  :     glMatrixMode(GL_PROJECTION);                   //Use the Projection Matrix

	test	edx, edx
	mov	edi, ecx
	mov	ebx, 1
	mov	ecx, 5889				; 00001701H
	cmovne	ebx, edx
	call	QWORD PTR __imp_glMatrixMode

; 829  :     glLoadIdentity();                              //Reset Matrix

	call	QWORD PTR __imp_glLoadIdentity

; 830  : 
; 831  :     glViewport(0, 0, w, h);                        //Set the viewport to be the entire window

	mov	r9d, ebx
	mov	r8d, edi
	xor	edx, edx
	xor	ecx, ecx
	call	QWORD PTR __imp_glViewport

; 832  :     gluPerspective(60, ratio, 0.1, 500);             //Set the correct perspective.

	movsd	xmm3, QWORD PTR __real@407f400000000000
	movsd	xmm2, QWORD PTR __real@3fb999999999999a
	movd	xmm1, edi
	cvtdq2ps xmm1, xmm1
	movd	xmm0, ebx
	cvtdq2ps xmm0, xmm0
	divss	xmm1, xmm0
	movsd	xmm0, QWORD PTR __real@404e000000000000
	cvtps2pd xmm1, xmm1
	call	QWORD PTR __imp_gluPerspective

; 833  : 
; 834  :     glMatrixMode(GL_MODELVIEW);                    //Get Back to the Modelview

	mov	ecx, 5888				; 00001700H

; 835  : }

	mov	rbx, QWORD PTR [rsp+48]
	add	rsp, 32					; 00000020H
	pop	rdi

; 833  : 
; 834  :     glMatrixMode(GL_MODELVIEW);                    //Get Back to the Modelview

	rex_jmp	QWORD PTR __imp_glMatrixMode
?fullScreen@@YAXHH@Z ENDP				; fullScreen
_TEXT	ENDS
; Function compile flags: /Ogtpy
; File E:\xxxDATA\¥Û»˝…œ\–Èƒ‚œ÷ µ\22120111 –‹œËœË OpenGL¥Û◊˜“µ\room\room\room.cpp
; File E:\xxxDATA\¥Û»˝…œ\–Èƒ‚œ÷ µ\22120111 –‹œËœË OpenGL¥Û◊˜“µ\room\packages\nupengl.core.0.1.0.1\build\native\include\GL\freeglut_std.h
; File E:\xxxDATA\¥Û»˝…œ\–Èƒ‚œ÷ µ\22120111 –‹œËœË OpenGL¥Û◊˜“µ\room\room\room.cpp
; File E:\xxxDATA\¥Û»˝…œ\–Èƒ‚œ÷ µ\22120111 –‹œËœË OpenGL¥Û◊˜“µ\room\packages\nupengl.core.0.1.0.1\build\native\include\GL\freeglut_std.h
; File E:\xxxDATA\¥Û»˝…œ\–Èƒ‚œ÷ µ\22120111 –‹œËœË OpenGL¥Û◊˜“µ\room\room\room.cpp
;	COMDAT main
_TEXT	SEGMENT
argc$GSCopy$ = 32
__$ArrayPad$ = 40
argc$ = 64
argv$ = 72
main	PROC						; COMDAT

; 839  : {

$LN8:
	sub	rsp, 56					; 00000038H
	mov	rax, QWORD PTR __security_cookie
	xor	rax, rsp
	mov	QWORD PTR __$ArrayPad$[rsp], rax
	mov	DWORD PTR argc$GSCopy$[rsp], ecx
; File E:\xxxDATA\¥Û»˝…œ\–Èƒ‚œ÷ µ\22120111 –‹œËœË OpenGL¥Û◊˜“µ\room\packages\nupengl.core.0.1.0.1\build\native\include\GL\freeglut_std.h

; 614  : static void FGAPIENTRY FGUNUSED glutInit_ATEXIT_HACK(int *argcp, char **argv) { __glutInitWithExit(argcp, argv, exit); }

	lea	r8, OFFSET FLAT:exit
	lea	rcx, QWORD PTR argc$GSCopy$[rsp]
	call	QWORD PTR __imp___glutInitWithExit
; File E:\xxxDATA\¥Û»˝…œ\–Èƒ‚œ÷ µ\22120111 –‹œËœË OpenGL¥Û◊˜“µ\room\room\room.cpp

; 842  :     glutInitDisplayMode(GLUT_DOUBLE | GLUT_RGB | GLUT_DEPTH);

	mov	ecx, 18
	call	QWORD PTR __imp_glutInitDisplayMode

; 843  :    
; 844  :     glutInitWindowPosition(100, 100);

	mov	edx, 100				; 00000064H
	mov	ecx, edx
	call	QWORD PTR __imp_glutInitWindowPosition

; 845  :     glutInitWindowSize(windowHeight, windowWidth);

	mov	edx, 600				; 00000258H
	mov	ecx, 800				; 00000320H
	call	QWORD PTR __imp_glutInitWindowSize
; File E:\xxxDATA\¥Û»˝…œ\–Èƒ‚œ÷ µ\22120111 –‹œËœË OpenGL¥Û◊˜“µ\room\packages\nupengl.core.0.1.0.1\build\native\include\GL\freeglut_std.h

; 616  : static int FGAPIENTRY FGUNUSED glutCreateWindow_ATEXIT_HACK(const char *title) { return __glutCreateWindowWithExit(title, exit); }

	lea	rdx, OFFSET FLAT:exit
	lea	rcx, OFFSET FLAT:??_C@_07MIABAGAF@Bedroom@
	call	QWORD PTR __imp___glutCreateWindowWithExit
; File E:\xxxDATA\¥Û»˝…œ\–Èƒ‚œ÷ µ\22120111 –‹œËœË OpenGL¥Û◊˜“µ\room\room\room.cpp

; 849  :     textureVec[0] = loadGLTexture("./floor.bmp");

	lea	rcx, OFFSET FLAT:??_C@_0M@LENBOBFJ@?4?1floor?4bmp@
	call	?loadGLTexture@@YAIPEBD@Z		; loadGLTexture

; 850  :     textureVec[1] = loadGLTexture("./wall.bmp");

	lea	rcx, OFFSET FLAT:??_C@_0L@MFIJNKHO@?4?1wall?4bmp@
	mov	DWORD PTR ?textureVec@@3PAIA, eax
	call	?loadGLTexture@@YAIPEBD@Z		; loadGLTexture

; 851  :     textureVec[2] = loadGLTexture("./van.bmp");

	lea	rcx, OFFSET FLAT:??_C@_09OFEHNHJM@?4?1van?4bmp@
	mov	DWORD PTR ?textureVec@@3PAIA+4, eax
	call	?loadGLTexture@@YAIPEBD@Z		; loadGLTexture

; 852  :    
; 853  :     glShadeModel(GL_SMOOTH);

	mov	ecx, 7425				; 00001d01H
	mov	DWORD PTR ?textureVec@@3PAIA+8, eax
	call	QWORD PTR __imp_glShadeModel

; 854  :     glEnable(GL_DEPTH_TEST);

	mov	ecx, 2929				; 00000b71H
	call	QWORD PTR __imp_glEnable

; 855  :     glEnable(GL_NORMALIZE);

	mov	ecx, 2977				; 00000ba1H
	call	QWORD PTR __imp_glEnable

; 856  : 
; 857  :     glutReshapeFunc(fullScreen);

	lea	rcx, OFFSET FLAT:?fullScreen@@YAXHH@Z	; fullScreen
	call	QWORD PTR __imp_glutReshapeFunc

; 858  :     glutDisplayFunc(display);

	lea	rcx, OFFSET FLAT:?display@@YAXXZ	; display
	call	QWORD PTR __imp_glutDisplayFunc

; 859  :     glutKeyboardFunc(myKeyboardFunc);

	lea	rcx, OFFSET FLAT:?myKeyboardFunc@@YAXEHH@Z ; myKeyboardFunc
	call	QWORD PTR __imp_glutKeyboardFunc

; 860  :     glutIdleFunc(animate);

	lea	rcx, OFFSET FLAT:?animate@@YAXXZ	; animate
	call	QWORD PTR __imp_glutIdleFunc

; 861  :     glutMainLoop();

	call	QWORD PTR __imp_glutMainLoop

; 862  :   
; 863  :     return 0;

	xor	eax, eax

; 864  : }

	mov	rcx, QWORD PTR __$ArrayPad$[rsp]
	xor	rcx, rsp
	call	__security_check_cookie
	add	rsp, 56					; 00000038H
	ret	0
main	ENDP
_TEXT	ENDS
END
